ccopy_reg
_reconstructor
p1
(clibs.modular_core.libfundamental
data_container
p2
c__builtin__
object
p3
NtRp4
(dp5
S'data'
p6
(lp7
(lp8
g1
(clibs.modules.libchemicallite
scalers
p9
g3
NtRp10
(dp11
S'tag'
p12
S'scaler'
p13
sS'scalers'
p14
(lp15
F0
aF10.136145773352116
aF10.136145773352116
aF20.181948281636558
aF30.189370153742853
aF40.216959975171292
aF50.246609577248925
aF60.290074463759048
aF70.361511140861097
aF80.393987197281717
aF90.409050806442494
aF100.45877889290026
aF110.47495591572908
aF120.49004564287516
aF130.51137230783885
aF140.53925867867042
aF150.73984080256122
aF160.75014316369845
aF170.85047665006411
aF180.88515602142289
aF190.98780061377155
aF200.99263988054005
aF211.05495401649674
aF221.39957490381315
aF231.40895415640713
aF241.41735661256197
aF251.42426517799925
aF261.65433283929332
aF271.66872455013697
aF281.69592347928926
aF291.72380403376258
aF301.87061584863579
aF311.89976076738293
aF321.94014834429743
aF331.97810436402796
aF342.11444903205415
aF352.14499663919878
aF362.15935686001802
aF372.22170473664011
aF382.22836741764348
aF392.46193781054075
aF402.49321589347994
aF412.51772702497942
aF422.52847210423533
aF432.58927695161066
aF442.5973295027141
aF452.63006495644294
aF462.70786508841269
aF472.77256121718995
aF482.88115328408975
aF492.8953317327377
aF503.10069138489007
aF513.18666731666974
aF523.34933674569311
aF533.35967718637733
aF543.38906093337766
aF553.47007735459238
aF563.69749249511199
aF573.71626014159472
aF583.81549563474414
aF593.8849760886576
aF603.88875749353701
aF613.94462643766303
aF623.99074739476202
aF634.022921962326
aF644.11342794510381
aF654.11888096211305
aF664.19901823698285
aF674.26479938634179
aF684.32094954780871
aF694.4336590721565
aF704.59179556753736
aF715.05656507826814
aF725.06796873138171
aF735.10531072152878
aF745.11860713109172
aF755.23591080385916
aF765.24457091999795
aF775.46393580859058
aF785.55611634831223
aF795.58578398316581
aF805.88920952941464
aF815.9048336545028
aF825.95003941032564
aF835.97657618875598
aF846.03932217223246
aF856.06112120926377
aF866.06331491447338
aF876.37932120762014
aF886.44048968720301
aF896.46446660606125
aF906.48898786600103
aF916.60275944709883
aF926.94698700958088
aF937.25385628922538
aF947.61774936051256
aF957.65155182458716
aF967.72524286916712
aF977.7280148026739
aF987.76966250832197
aF997.91158183719187
asS'label'
p16
S'time'
p17
sbag1
(g9
g3
NtRp18
(dp19
g12
g13
sg14
(lp20
F0
aF10
aF20
aF30
aF40
aF50
aF60
aF70
aF80
aF90
aF100
aF110
aF120
aF130
aF140
aF150
aF160
aF170
aF180
aF190
aF200
aF210
aF220
aF230
aF240
aF250
aF260
aF270
aF280
aF290
aF300
aF310
aF320
aF330
aF340
aF350
aF360
aF370
aF380
aF390
aF400
aF410
aF420
aF430
aF440
aF450
aF460
aF470
aF480
aF490
aF500
aF510
aF520
aF530
aF540
aF550
aF560
aF570
aF580
aF590
aF600
aF610
aF620
aF630
aF640
aF650
aF660
aF670
aF680
aF690
aF700
aF710
aF720
aF730
aF740
aF750
aF760
aF770
aF780
aF790
aF800
aF810
aF820
aF830
aF840
aF850
aF860
aF870
aF880
aF890
aF900
aF910
aF920
aF930
aF940
aF950
aF960
aF970
aF980
aF990
aF1000
asg16
S'fixed_time'
p21
sbag1
(g9
g3
NtRp22
(dp23
g12
g13
sg14
(lp24
I20
aI7
aI7
aI4
aI4
aI3
aI4
aI9
aI16
aI24
aI24
aI24
aI29
aI29
aI30
aI31
aI29
aI23
aI20
aI17
aI18
aI14
aI12
aI13
aI10
aI14
aI15
aI15
aI18
aI23
aI24
aI26
aI24
aI24
aI24
aI21
aI21
aI22
aI24
aI26
aI31
aI30
aI30
aI32
aI31
aI36
aI36
aI40
aI42
aI45
aI42
aI41
aI44
aI43
aI44
aI49
aI52
aI54
aI51
aI51
aI47
aI44
aI44
aI42
aI36
aI30
aI29
aI30
aI28
aI29
aI26
aI20
aI15
aI12
aI11
aI13
aI10
aI12
aI14
aI11
aI14
aI14
aI16
aI22
aI21
aI23
aI28
aI31
aI45
aI46
aI48
aI44
aI44
aI42
aI42
aI40
aI38
aI35
aI34
aI28
aI25
asg16
VAraC2
p25
sbag1
(g9
g3
NtRp26
(dp27
g12
g13
sg14
(lp28
I1
aI39
aI39
aI87
aI104
aI112
aI167
aI239
aI299
aI356
aI353
aI328
aI310
aI288
aI268
aI237
aI207
aI192
aI171
aI147
aI135
aI123
aI116
aI145
aI156
aI166
aI232
aI216
aI203
aI185
aI170
aI158
aI148
aI142
aI155
aI186
aI214
aI224
aI249
aI269
aI264
aI257
aI249
aI245
aI261
aI276
aI311
aI334
aI317
aI293
aI288
aI284
aI278
aI264
aI275
aI304
aI323
aI309
aI291
aI288
aI270
aI251
aI238
aI225
aI207
aI199
aI182
aI164
aI147
aI125
aI109
aI101
aI87
aI101
aI139
aI163
aI182
aI169
aI162
aI141
aI131
aI121
aI139
aI191
aI248
aI312
aI404
aI444
aI446
aI418
aI381
aI365
aI336
aI299
aI263
aI231
aI201
aI175
aI147
aI117
aI87
asg16
VLacI
p29
sbag1
(g9
g3
NtRp30
(dp31
g12
g13
sg14
(lp32
I10
aI41
aI41
aI90
aI111
aI112
aI168
aI227
aI292
aI357
aI359
aI342
aI322
aI296
aI271
aI258
aI240
aI210
aI193
aI178
aI167
aI155
aI140
aI171
aI184
aI203
aI272
aI261
aI240
aI219
aI198
aI179
aI164
aI153
aI171
aI192
aI203
aI228
aI245
aI261
aI261
aI253
aI242
aI232
aI261
aI281
aI315
aI340
aI340
aI315
aI296
aI303
aI293
aI291
aI296
aI316
aI334
aI327
aI306
aI297
aI281
aI269
aI252
aI239
aI218
aI222
aI209
aI201
aI187
aI158
aI145
aI135
aI113
aI97
aI132
aI156
aI182
aI173
aI168
aI146
aI132
aI120
aI135
aI204
aI263
aI323
aI398
aI446
aI461
aI440
aI420
aI397
aI367
aI335
aI305
aI266
aI220
aI187
aI157
aI126
aI101
asg16
VGFP
p33
sbag1
(g9
g3
NtRp34
(dp35
g12
g13
sg14
(lp36
I50
aI73
aI73
aI111
aI118
aI125
aI172
aI223
aI284
aI323
aI321
aI302
aI260
aI233
aI214
aI186
aI162
aI151
aI141
aI134
aI116
aI111
aI112
aI139
aI153
aI167
aI226
aI226
aI205
aI178
aI159
aI134
aI125
aI121
aI131
aI159
aI183
aI194
aI224
aI243
aI235
aI234
aI221
aI210
aI222
aI238
aI263
aI283
aI276
aI245
aI238
aI230
aI212
aI207
aI221
aI227
aI232
aI224
aI221
aI216
aI193
aI183
aI175
aI170
aI164
aI166
aI151
aI140
aI131
aI110
aI94
aI80
aI73
aI80
aI111
aI122
aI150
aI141
aI130
aI123
aI114
aI114
aI130
aI182
aI239
aI299
aI379
aI404
aI388
aI364
aI334
aI309
aI285
aI248
aI205
aI179
aI146
aI132
aI105
aI82
aI66
asg16
VAraC
p37
sbag1
(g9
g3
NtRp38
(dp39
g12
g13
sg14
(lp40
I1
aI1
aI1
aI0
aI1
aI1
aI0
aI0
aI0
aI0
aI2
aI4
aI4
aI4
aI4
aI4
aI4
aI4
aI2
aI2
aI2
aI2
aI1
aI1
aI1
aI1
aI1
aI3
aI3
aI3
aI3
aI3
aI3
aI2
aI1
aI1
aI1
aI1
aI1
aI1
aI2
aI2
aI2
aI2
aI1
aI1
aI1
aI1
aI3
aI3
aI2
aI2
aI2
aI1
aI1
aI1
aI1
aI2
aI2
aI2
aI2
aI2
aI2
aI2
aI2
aI2
aI2
aI2
aI3
aI3
aI2
aI2
aI2
aI1
aI1
aI1
aI1
aI2
aI3
aI2
aI2
aI1
aI1
aI0
aI0
aI0
aI0
aI1
aI3
aI4
aI7
aI7
aI7
aI9
aI9
aI9
aI8
aI7
aI6
aI7
aI6
asg16
VLacI4
p41
sbag1
(g9
g3
NtRp42
(dp43
g12
g13
sg14
(lp44
I10
aI6
aI6
aI6
aI6
aI9
aI8
aI8
aI14
aI16
aI17
aI17
aI15
aI17
aI24
aI21
aI19
aI17
aI16
aI16
aI16
aI18
aI13
aI10
aI12
aI12
aI13
aI10
aI14
aI14
aI15
aI16
aI16
aI14
aI17
aI13
aI13
aI12
aI11
aI10
aI11
aI14
aI17
aI21
aI20
aI17
aI15
aI14
aI11
aI12
aI14
aI15
aI13
aI14
aI14
aI18
aI18
aI16
aI18
aI16
aI15
aI20
aI19
aI17
aI20
aI21
aI18
aI17
aI18
aI15
aI17
aI14
aI12
aI14
aI14
aI11
aI12
aI10
aI9
aI15
aI15
aI10
aI13
aI14
aI15
aI20
aI19
aI17
aI16
aI15
aI14
aI17
aI16
aI15
aI19
aI20
aI18
aI18
aI12
aI11
aI10
asg16
VCFP
p45
sbag1
(g9
g3
NtRp46
(dp47
g12
g13
sg14
(lp48
F1
aF0
aF0
aF0
aF1
aF0
aF0
aF1
aF0
aF0
aF1
aF0
aF0
aF1
aF0
aF0
aF1
aF0
aF0
aF1
aF0
aF0
aF1
aF0
aF0
aF1
aF0
aF0
aF1
aF0
aF0
aF1
aF0
aF0
aF1
aF0
aF0
aF1
aF0
aF0
aF1
aF0
aF0
aF1
aF0
aF0
aF1
aF0
aF0
aF1
aF0
aF0
aF1
aF0
aF0
aF1
aF0
aF0
aF1
aF0
aF0
aF1
aF0
aF0
aF1
aF0
aF0
aF1
aF0
aF0
aF1
aF0
aF0
aF1
aF0
aF0
aF1
aF0
aF0
aF1
aF0
aF0
aF1
aF0
aF0
aF0
aF0
aF0
aF0
aF0
aF0
aF0
aF0
aF0
aF0
aF0
aF0
aF0
aF0
aF0
aF0
asg16
Vfunction
p49
sbag1
(g9
g3
NtRp50
(dp51
g12
g13
sg14
(lp52
F0.5
aF0
aF0
aF0
aF0.5
aF0
aF0
aF0.5
aF0
aF0
aF0.5
aF0
aF0
aF0.5
aF0
aF0
aF0.5
aF0
aF0
aF0.5
aF0
aF0
aF0.5
aF0
aF0
aF0.5
aF0
aF0
aF0.5
aF0
aF0
aF0.5
aF0
aF0
aF0.5
aF0
aF0
aF0.5
aF0
aF0
aF0.5
aF0
aF0
aF0.5
aF0
aF0
aF0.5
aF0
aF0
aF0.5
aF0
aF0
aF0.5
aF0
aF0
aF0.5
aF0
aF0
aF0.5
aF0
aF0
aF0.5
aF0
aF0
aF0.5
aF0
aF0
aF0.5
aF0
aF0
aF0.5
aF0
aF0
aF0.5
aF0
aF0
aF0.5
aF0
aF0
aF0.5
aF0
aF0
aF0.5
aF0
aF0
aF0
aF0
aF0
aF0
aF0
aF0
aF0
aF0
aF0
aF0
aF0
aF0
aF0
aF0
aF0
aF0
asg16
Vlambda_CA
p53
sbag1
(g9
g3
NtRp54
(dp55
g12
g13
sg14
(lp56
F4.7619047619047619
aF4.375
aF4.375
aF8
aF4
aF3.75
aF8
aF9
aF9.4117647058823533
aF9.5999999999999996
aF1.9199999999999999
aF0.56470588235294117
aF0.56862745098039214
aF0.56862745098039214
aF0.56925996204933593
aF0.56985294117647056
aF0.56862745098039214
aF0.56372549019607843
aF1.9047619047619047
aF1.8888888888888888
aF1.8947368421052631
aF1.8666666666666667
aF4.6153846153846159
aF4.6428571428571432
aF4.545454545454545
aF4.666666666666667
aF4.6875
aF0.9375
aF0.94736842105263153
aF0.95833333333333337
aF0.95999999999999996
aF0.96296296296296291
aF0.95999999999999996
aF1.9199999999999999
aF4.7999999999999998
aF4.7727272727272734
aF4.7727272727272734
aF4.7826086956521738
aF4.7999999999999998
aF4.8148148148148149
aF1.9375
aF1.935483870967742
aF1.935483870967742
aF1.9393939393939394
aF4.84375
aF4.8648648648648649
aF4.8648648648648649
aF4.8780487804878048
aF0.97674418604651159
aF0.97826086956521741
aF1.9534883720930232
aF1.9523809523809523
aF1.9555555555555555
aF4.8863636363636367
aF4.8888888888888884
aF4.9000000000000004
aF4.9056603773584904
aF1.9636363636363636
aF1.9615384615384615
aF1.9615384615384615
aF1.9583333333333333
aF1.9555555555555555
aF1.9555555555555555
aF1.9534883720930232
aF1.9459459459459461
aF1.935483870967742
aF1.9333333333333333
aF1.935483870967742
aF0.96551724137931039
aF0.96666666666666667
aF1.9259259259259258
aF1.9047619047619047
aF1.875
aF4.6153846153846159
aF4.583333333333333
aF4.6428571428571432
aF4.545454545454545
aF1.8461538461538463
aF0.93333333333333335
aF1.8333333333333333
aF1.8666666666666667
aF4.666666666666667
aF4.7058823529411766
aF9.5652173913043477
aF9.5454545454545467
aF9.5833333333333339
aF9.6551724137931032
aF4.84375
aF0.97826086956521741
aF0.57571964956195243
aF0.19591836734693879
aF0.19555555555555557
aF0.19555555555555557
aF0.11911514463981848
aF0.11911514463981848
aF0.11897679952409279
aF0.14990138067061146
aF0.19444444444444445
aF0.26254826254826258
aF0.19310344827586209
aF0.25987525987525989
asg16
Vlambda_GLA
p57
sbaasS'args'
p58
(tsS'postproc_data'
p59
(lp60
sb.