ccopy_reg
_reconstructor
p1
(clibs.modular_core.libfundamental
data_container
p2
c__builtin__
object
p3
NtRp4
(dp5
S'data'
p6
(lp7
(lp8
g1
(clibs.modules.libchemicallite
scalers
p9
g3
NtRp10
(dp11
S'tag'
p12
S'scaler'
p13
sS'scalers'
p14
(lp15
F0
aF10.039016772951966
aF10.039016772951966
aF20.075877137730519
aF30.148842074450336
aF40.186804270096076
aF50.663360103219368
aF60.667823078348412
aF70.729289051456306
aF80.747714477730639
aF90.798932108414235
aF100.81426260334942
aF110.81613699728497
aF120.91590954856876
aF131.02475294434359
aF141.11141485572679
aF151.21239168233046
aF161.2911119322338
aF171.33545582225844
aF181.47445564891535
aF191.60737514188943
aF201.67753108061413
aF211.69524527483904
aF221.7835282872079
aF231.82830389393547
aF241.85907335068919
aF251.88755032340538
aF261.9304405698249
aF272.03398722215422
aF282.14087519317667
aF292.1714435753866
aF302.18050481007418
aF312.23696589838636
aF322.27213222572925
aF332.32950093066688
aF342.45500859206555
aF352.48808414700608
aF362.56963225499186
aF372.70432630032701
aF382.74968547918758
aF392.85145156436113
aF403.05822123554219
aF413.16008987452955
aF423.1732690219701
aF433.17797042960512
aF443.1853938676137
aF453.37988160946094
aF463.44190571509046
aF473.51416522509021
aF483.61156894968599
aF493.61610625259249
aF503.63446775718603
aF513.83969988448825
aF523.87238666579469
aF533.94332208754213
aF544.05238081401399
aF554.07731626063435
aF564.08671145899223
aF574.09596904780642
aF584.27266840839241
aF594.30969557971548
aF604.35714539848766
aF614.36342466373628
aF624.5763224663873
aF634.58565066144683
aF644.6898838702358
aF654.95178046273361
aF664.96061278528703
aF674.98412039598566
aF685.00937922753087
aF695.14585757787984
aF705.21522351882209
aF715.24917548737096
aF725.29394560871492
aF735.43012346373871
aF745.43076044695113
aF755.48690013484884
aF765.55831400993634
aF775.61551997761853
aF785.7168293500032
aF795.77400776320098
aF805.82168908474705
aF815.93250768128655
aF825.9796936157519
aF836.06711980417617
aF846.08709763460456
aF856.32862483255838
aF866.50428873398062
aF876.59416469579605
aF886.59662668249609
aF896.65382208750896
aF906.70421171095757
aF916.71813722677371
aF926.73383266244025
aF936.73493512656
aF946.78157672910231
aF956.88797991547972
aF966.99718895824662
aF977.01472390848801
aF987.11051786957864
aF997.16485497183396
aF1007.1722359146257
aF1017.2373390289475
aF1027.2956129361371
aF1037.4457797943319
aF1047.5822446611053
aF1057.6097094211832
aF1067.6288985675433
aF1077.7169123991748
aF1087.7297499966544
aF1097.742552407854
aF1107.7903436114843
aF1117.8028640573089
aF1127.896380021305
aF1137.9047463358729
aF1148.0228659211662
aF1158.0301356836574
aF1168.1145994413134
aF1178.2019160627522
aF1188.2997025463214
aF1198.3311736460755
aF1208.4033505525827
aF1218.4060484873528
aF1228.4733768597725
aF1238.4961422754498
aF1248.5183607392089
aF1258.6979382026834
aF1268.7181672095974
aF1278.7436649036404
aF1288.7649512014812
aF1298.777597551682
aF1308.8047346270705
aF1318.8063910843337
aF1328.8073130306495
aF1338.8478980592422
aF1348.8808476908182
aF1359.2332256031741
aF1369.4625498072699
aF1379.5225505542364
aF1389.5318035434191
aF1399.8316933580279
aF1409.9280040545252
aF1419.9719728665159
aF1429.9805412443197
aF1439.9975035960649
aF1450.0255155908064
aF1450.0255155908064
aF1460.074782467319
aF1470.0763962363587
aF1480.1236500251794
aF1490.2668429222529
aF1500.3319477884222
aF1510.3658503070576
aF1520.471056555197
aF1530.5362965168026
aF1540.5692360110452
aF1550.5984473004457
aF1560.6632344933753
aF1570.683058485567
aF1580.7313738009584
aF1590.8268998552635
aF1600.9293436030509
aF1610.9696668548108
aF1620.9953076442982
aF1631.0535651134123
aF1641.0655343505725
aF1651.1713824484664
aF1661.1815466016444
aF1671.290213494625
aF1681.3100231685423
aF1691.4041989820516
aF1701.4950740039108
aF1711.495545140519
aF1721.527386662797
aF1731.7493020322152
aF1741.7981360373806
aF1751.807901069983
aF1761.9216430833947
aF1772.0487030273141
aF1782.144863049366
aF1792.4346030987504
aF1802.5404475524331
aF1812.6055345839488
aF1822.6758795568082
aF1832.7876816294004
aF1843.1087092360897
aF1853.1805286751833
aF1863.2410545456455
aF1873.2990120608433
aF1883.3026432991844
aF1893.4124931138633
aF1903.7129712577382
aF1913.7324055132194
aF1923.77059598198
aF1933.8187245419592
aF1943.824714717163
aF1953.8444084058929
aF1963.9909597874505
aF1974.036953424976
aF1984.1716744636706
aF1994.2217603851068
asS'label'
p16
S'time'
p17
sbag1
(g9
g3
NtRp18
(dp19
g12
g13
sg14
(lp20
F0
aF10
aF20
aF30
aF40
aF50
aF60
aF70
aF80
aF90
aF100
aF110
aF120
aF130
aF140
aF150
aF160
aF170
aF180
aF190
aF200
aF210
aF220
aF230
aF240
aF250
aF260
aF270
aF280
aF290
aF300
aF310
aF320
aF330
aF340
aF350
aF360
aF370
aF380
aF390
aF400
aF410
aF420
aF430
aF440
aF450
aF460
aF470
aF480
aF490
aF500
aF510
aF520
aF530
aF540
aF550
aF560
aF570
aF580
aF590
aF600
aF610
aF620
aF630
aF640
aF650
aF660
aF670
aF680
aF690
aF700
aF710
aF720
aF730
aF740
aF750
aF760
aF770
aF780
aF790
aF800
aF810
aF820
aF830
aF840
aF850
aF860
aF870
aF880
aF890
aF900
aF910
aF920
aF930
aF940
aF950
aF960
aF970
aF980
aF990
aF1000
aF1010
aF1020
aF1030
aF1040
aF1050
aF1060
aF1070
aF1080
aF1090
aF1100
aF1110
aF1120
aF1130
aF1140
aF1150
aF1160
aF1170
aF1180
aF1190
aF1200
aF1210
aF1220
aF1230
aF1240
aF1250
aF1260
aF1270
aF1280
aF1290
aF1300
aF1310
aF1320
aF1330
aF1340
aF1350
aF1360
aF1370
aF1380
aF1390
aF1400
aF1410
aF1420
aF1430
aF1440
aF1450
aF1460
aF1470
aF1480
aF1490
aF1500
aF1510
aF1520
aF1530
aF1540
aF1550
aF1560
aF1570
aF1580
aF1590
aF1600
aF1610
aF1620
aF1630
aF1640
aF1650
aF1660
aF1670
aF1680
aF1690
aF1700
aF1710
aF1720
aF1730
aF1740
aF1750
aF1760
aF1770
aF1780
aF1790
aF1800
aF1810
aF1820
aF1830
aF1840
aF1850
aF1860
aF1870
aF1880
aF1890
aF1900
aF1910
aF1920
aF1930
aF1940
aF1950
aF1960
aF1970
aF1980
aF1990
aF2000
asg16
S'fixed_time'
p21
sbag1
(g9
g3
NtRp22
(dp23
g12
g13
sg14
(lp24
I10
aI44
aI44
aI71
aI84
aI104
aI114
aI126
aI156
aI152
aI139
aI132
aI140
aI155
aI176
aI202
aI214
aI248
aI323
aI360
aI378
aI406
aI405
aI390
aI357
aI341
aI339
aI329
aI316
aI298
aI287
aI279
aI286
aI271
aI258
aI273
aI265
aI250
aI261
aI266
aI248
aI222
aI211
aI198
aI185
aI190
aI275
aI332
aI402
aI438
aI462
aI472
aI473
aI448
aI430
aI419
aI404
aI391
aI366
aI344
aI317
aI299
aI259
aI228
aI202
aI178
aI147
aI120
aI111
aI96
aI85
aI128
aI184
aI260
aI292
aI310
aI337
aI358
aI379
aI386
aI365
aI346
aI333
aI324
aI301
aI283
aI266
aI245
aI231
aI232
aI239
aI268
aI278
aI284
aI291
aI288
aI301
aI314
aI326
aI342
aI360
aI378
aI399
aI423
aI426
aI409
aI397
aI380
aI380
aI369
aI368
aI358
aI359
aI360
aI347
aI336
aI330
aI312
aI299
aI285
aI283
aI279
aI307
aI333
aI342
aI354
aI370
aI388
aI372
aI359
aI355
aI346
aI326
aI312
aI300
aI333
aI354
aI376
aI400
aI465
aI486
aI463
aI446
aI420
aI384
aI356
aI356
aI323
aI314
aI286
aI267
aI244
aI218
aI208
aI214
aI227
aI245
aI269
aI248
aI226
aI195
aI171
aI141
aI113
aI97
aI116
aI123
aI143
aI212
aI284
aI323
aI344
aI367
aI379
aI382
aI408
aI403
aI383
aI364
aI342
aI313
aI286
aI261
aI245
aI238
aI229
aI220
aI211
aI199
aI187
aI178
aI183
aI194
aI200
aI228
aI240
aI268
aI270
aI281
aI261
aI246
asg16
VGFP
p25
sbag1
(g9
g3
NtRp26
(dp27
g12
g13
sg14
(lp28
I10
aI11
aI11
aI11
aI13
aI15
aI22
aI28
aI27
aI27
aI29
aI30
aI31
aI33
aI32
aI27
aI27
aI30
aI33
aI33
aI37
aI43
aI39
aI40
aI44
aI56
aI54
aI56
aI55
aI56
aI60
aI53
aI50
aI50
aI46
aI49
aI55
aI55
aI56
aI52
aI52
aI58
aI59
aI62
aI57
aI51
aI49
aI53
aI50
aI53
aI56
aI54
aI59
aI59
aI65
aI63
aI67
aI69
aI77
aI77
aI76
aI75
aI67
aI66
aI66
aI59
aI56
aI45
aI47
aI39
aI34
aI26
aI36
aI37
aI42
aI43
aI42
aI42
aI44
aI45
aI46
aI48
aI44
aI45
aI44
aI46
aI43
aI45
aI53
aI57
aI61
aI60
aI63
aI67
aI66
aI62
aI59
aI58
aI58
aI65
aI63
aI67
aI67
aI70
aI73
aI70
aI70
aI72
aI62
aI65
aI67
aI64
aI66
aI65
aI67
aI67
aI68
aI68
aI66
aI64
aI61
aI62
aI62
aI58
aI56
aI61
aI64
aI65
aI72
aI74
aI69
aI66
aI66
aI70
aI71
aI72
aI77
aI77
aI79
aI81
aI86
aI92
aI91
aI84
aI77
aI77
aI77
aI77
aI77
aI71
aI75
aI72
aI70
aI58
aI56
aI55
aI49
aI49
aI43
aI39
aI43
aI46
aI40
aI34
aI30
aI26
aI23
aI19
aI25
aI23
aI29
aI33
aI35
aI36
aI40
aI46
aI48
aI53
aI54
aI54
aI54
aI47
aI52
aI53
aI54
aI53
aI51
aI51
aI47
aI43
aI46
aI43
aI45
aI43
aI42
aI42
aI47
aI47
aI47
aI50
aI50
asg16
VCFP
p29
sbag1
(g9
g3
NtRp30
(dp31
g12
g13
sg14
(lp32
F0.5
aF0.5
aF0.5
aF0.5
aF0.5
aF0.5
aF0.5
aF0.5
aF0.5
aF0.5
aF0.5
aF0.5
aF0.5
aF0.5
aF0.5
aF0.5
aF0.5
aF0.5
aF0.5
aF0.5
aF0.5
aF0.5
aF0.5
aF0.5
aF0.5
aF0.5
aF0.5
aF0.5
aF0.5
aF0.5
aF0.5
aF0.5
aF0.5
aF0.5
aF0.5
aF0.5
aF0.5
aF0.5
aF0.5
aF0.5
aF0.5
aF0.5
aF0.5
aF0.5
aF0.5
aF0.5
aF0.5
aF0.5
aF0.5
aF0.5
aF0.5
aF0.5
aF0.5
aF0.5
aF0.5
aF0.5
aF0.5
aF0.5
aF0.5
aF0.5
aF0.5
aF0.5
aF0.5
aF0.5
aF0.5
aF0.5
aF0.5
aF0.5
aF0.5
aF0.5
aF0.5
aF0.5
aF0.5
aF0.5
aF0.5
aF0.5
aF0.5
aF0.5
aF0.5
aF0.5
aF0.5
aF0.5
aF0.5
aF0.5
aF0.5
aF0.5
aF0.5
aF0.5
aF0.5
aF0.5
aF0.5
aF0.5
aF0.5
aF0.5
aF0.5
aF0.5
aF0.5
aF0.5
aF0.5
aF0.5
aF0.5
aF0.5
aF0.5
aF0.5
aF0.5
aF0.5
aF0.5
aF0.5
aF0.5
aF0.5
aF0.5
aF0.5
aF0.5
aF0.5
aF0.5
aF0.5
aF0.5
aF0.5
aF0.5
aF0.5
aF0.5
aF0.5
aF0.5
aF0.5
aF0.5
aF0.5
aF0.5
aF0.5
aF0.5
aF0.5
aF0.5
aF0.5
aF0.5
aF0.5
aF0.5
aF0.5
aF0.5
aF0.5
aF0.5
aF0.5
aF0.5
aF0.5
aF0.5
aF0.5
aF0.5
aF0.5
aF0.5
aF0.5
aF0.5
aF0.5
aF0.5
aF0.5
aF0.5
aF0.5
aF0.5
aF0.5
aF0.5
aF0.5
aF0.5
aF0.5
aF0.5
aF0.5
aF0.5
aF0.5
aF0.5
aF0.5
aF0.5
aF0.5
aF0.5
aF0.5
aF0.5
aF0.5
aF0.5
aF0.5
aF0.5
aF0.5
aF0.5
aF0.5
aF0.5
aF0.5
aF0.5
aF0.5
aF0.5
aF0.5
aF0.5
aF0.5
aF0.5
aF0.5
aF0.5
aF0.5
aF0.5
aF0.5
aF0.5
aF0.5
aF0.5
aF0.5
aF0.5
aF0.5
aF0.5
aF0.5
aF0.5
asg16
Vlambda_CA
p33
sbag1
(g9
g3
NtRp34
(dp35
g12
g13
sg14
(lp36
F4.7619047619047619
aF4.666666666666667
aF4.666666666666667
aF4.6153846153846159
aF4.6153846153846159
aF4.375
aF1.7142857142857142
aF4.4444444444444446
aF4.2857142857142856
aF1.6000000000000001
aF1.7777777777777777
aF1.8181818181818181
aF4.545454545454545
aF4.583333333333333
aF4.5
aF4.7058823529411766
aF4.7368421052631575
aF9.5454545454545467
aF9.5999999999999996
aF4.8076923076923075
aF4.8214285714285712
aF4.8484848484848486
aF0.97368421052631582
aF0.57352941176470584
aF0.97872340425531912
aF1.9615384615384615
aF1.962962962962963
aF1.9615384615384615
aF1.9636363636363636
aF1.9661016949152543
aF1.9636363636363636
aF1.9591836734693877
aF4.895833333333333
aF1.9574468085106382
aF1.9393939393939394
aF4.838709677419355
aF1.935483870967742
aF0.96666666666666667
aF4.8529411764705879
aF1.9375
aF0.96666666666666667
aF0.96666666666666667
aF1.9310344827586208
aF1.9259259259259258
aF4.7999999999999998
aF4.7999999999999998
aF9.6296296296296298
aF9.6551724137931032
aF9.7222222222222214
aF4.875
aF4.8809523809523805
aF4.8979591836734695
aF1.9666666666666666
aF0.984375
aF0.98571428571428577
aF1.971830985915493
aF0.98630136986301364
aF0.58028616852146264
aF0.98648648648648651
aF0.98630136986301364
aF0.98648648648648651
aF0.57958477508650519
aF0.37831021437578816
aF0.57791537667698656
aF0.97999999999999998
aF0.97826086956521741
aF0.97499999999999998
aF1.9375
aF1.9047619047619047
aF1.8823529411764706
aF1.8181818181818181
aF8.8888888888888893
aF8.75
aF9.0909090909090899
aF4.6875
aF4.7368421052631575
aF4.7058823529411766
aF4.7826086956521738
aF4.7999999999999998
aF1.9333333333333333
aF1.9459459459459461
aF0.97560975609756095
aF1.9534883720930232
aF1.9565217391304348
aF0.97674418604651159
aF0.97777777777777775
aF0.97727272727272729
aF0.97674418604651159
aF1.9487179487179487
aF4.8717948717948714
aF4.8611111111111107
aF4.8717948717948714
aF4.875
aF4.8837209302325579
aF4.875
aF4.8780487804878048
aF4.8863636363636367
aF4.8913043478260869
aF4.895833333333333
aF4.895833333333333
aF4.895833333333333
aF4.9000000000000004
aF4.901960784313725
aF4.9090909090909092
aF1.9642857142857142
aF1.9649122807017543
aF1.9666666666666666
aF1.9705882352941178
aF1.9701492537313432
aF1.9701492537313432
aF1.9710144927536233
aF1.9722222222222223
aF1.9726027397260273
aF1.972972972972973
aF1.971830985915493
aF1.9705882352941178
aF0.98461538461538467
aF0.98412698412698407
aF0.98360655737704916
aF0.9821428571428571
aF1.9591836734693877
aF4.8809523809523805
aF4.8717948717948714
aF4.8780487804878048
aF4.8809523809523805
aF4.8837209302325579
aF4.8863636363636367
aF4.8936170212765955
aF1.9591836734693877
aF1.9615384615384615
aF1.9591836734693877
aF1.9583333333333333
aF1.9555555555555555
aF1.9583333333333333
aF1.9607843137254901
aF9.7916666666666661
aF4.895833333333333
aF4.9038461538461533
aF9.8387096774193559
aF9.8507462686567155
aF1.9714285714285715
aF0.58059587471352181
aF0.37962037962037964
aF0.379746835443038
aF0.379746835443038
aF0.26684912760862128
aF0.26684912760862128
aF0.58069381598793368
aF0.98666666666666669
aF0.98648648648648651
aF0.98461538461538467
aF0.98333333333333328
aF0.98113207547169812
aF1.9555555555555555
aF4.8780487804878048
aF4.8684210526315788
aF4.8648648648648649
aF4.8611111111111107
aF0.57189542483660127
aF0.375
aF0.37393162393162394
aF0.37330316742081449
aF0.37087912087912089
aF0.95454545454545459
aF0.94117647058823528
aF4.6875
aF4.666666666666667
aF9.3333333333333339
aF9.2857142857142865
aF9.4117647058823533
aF4.791666666666667
aF4.8148148148148149
aF4.8275862068965516
aF4.84375
aF4.8484848484848486
aF4.8684210526315788
aF0.97674418604651159
aF0.97777777777777775
aF0.97727272727272729
aF0.97777777777777775
aF0.97619047619047616
aF0.97560975609756095
aF0.96666666666666667
aF1.9393939393939394
aF1.9411764705882353
aF1.9411764705882353
aF1.9333333333333333
aF1.9333333333333333
aF1.9199999999999999
aF1.9047619047619047
aF1.9047619047619047
aF1.8888888888888888
aF4.75
aF4.7222222222222223
aF4.7222222222222223
aF4.7619047619047619
aF1.9259259259259258
aF4.8214285714285712
aF4.833333333333333
aF0.56862745098039214
aF0.97297297297297303
asg16
Vlambda_GLA
p37
sbaasS'args'
p38
(tsS'postproc_data'
p39
Nsb.