ccopy_reg
_reconstructor
p1
(clibs.modular_core.libsimcomponents
ensemble
p2
c__builtin__
object
p3
NtRp4
g1
(clibs.modular_core.libfundamental
dictionary
p5
c__builtin__
dict
p6
(dp7
S'base_class'
p8
g1
(clibs.modular_core.libfundamental
interface_template_class
p9
g3
NtRp10
(dp11
S'args'
p12
(tsS'visible_attributes'
p13
(lp14
S'base_tag'
p15
asS'_class'
p16
g2
sS'_tag'
p17
S'__modu_object__'
p18
sbsS'_label'
p19
S'ensemble'
p20
sS'_make_spec_'
p21
NsS'postprocess_plan'
p22
g1
(clibs.modular_core.libpostprocess
post_process_plan
p23
g3
NtRp24
(dp25
g8
g1
(g9
g3
NtRp26
(dp27
g12
(tsg13
g14
sg16
g23
sg17
g18
sbsg19
S'Post Process Plan'
p28
sS'parameter_space_templates'
p29
(lp30
sS'use_plan'
p31
I01
sS'parent'
p32
g4
sS'rewidget_'
p33
I01
sS'data'
p34
(lp35
sS'widg_templates'
p36
(lp37
sS'_handles_'
p38
(lp39
sS'label'
p40
g28
sS'tool_templates'
p41
(lp42
sS'process_selector'
p43
NsS'post_processes'
p44
(lp45
sS'widg_dialog_templates'
p46
(lp47
sS'selected_process_label'
p48
S'None'
p49
sS'valid_base_classes'
p50
(lp51
g26
asS'menu_templates'
p52
(lp53
sbsS'module'
p54
S'chemicallite'
p55
sg41
(lp56
sS'skip_simulation'
p57
I00
sS'simulation_plan'
p58
g1
(clibs.modular_core.libsimcomponents
simulation_plan
p59
g3
NtRp60
(dp61
g8
g1
(g9
g3
NtRp62
(dp63
g12
(tsg13
g14
sg16
g59
sg17
g18
sbsg19
S'simulation plan'
p64
sS'widg_templates_capture_criteria'
p65
(lp66
sS'selected_end_crit_label'
p67
g49
sS'end_criteria'
p68
(lp69
g1
(clibs.modular_core.libcriterion
criterion_sim_time
p70
g3
NtRp71
(dp72
g8
g1
(g9
g3
NtRp73
(dp74
g12
(tsg13
g14
sg16
g70
sg17
S'time limit'
p75
sbsg19
S'time limit criterion'
p76
sg29
(lp77
sg32
g60
sg33
I01
sg34
(lp78
sg38
(lp79
sg36
(lp80
sg41
(lp81
sS'max_time'
p82
S'1000'
p83
sg46
(lp84
sS'bRelevant'
p85
I01
sg52
(lp86
sg13
(lp87
g40
ag8
ag85
ag82
asg50
(lp88
g1
(g9
g3
NtRp89
(dp90
g12
(tsg13
g14
sg16
g70
sg17
S'time limit'
p91
sbag1
(g9
g3
NtRp92
(dp93
g12
(tsg13
g14
sg16
clibs.modular_core.libcriterion
criterion_iteration
p94
sg17
S'iteration limit'
p95
sbag1
(g9
g3
NtRp96
(dp97
g12
(tsg13
g14
sg16
clibs.modular_core.libcriterion
criterion_capture_count
p98
sg17
S'capture limit'
p99
sbag1
(g9
g3
NtRp100
(dp101
g12
(tsg13
g14
sg16
clibs.modules.libchemicallite
criterion_spec_included_scaler_increment
p102
sg17
S'species scaler increment'
p103
sbag1
(g9
g3
NtRp104
(dp105
g12
(tsg13
g14
sg16
clibs.modules.libchemicallite
criterion_species_count
p106
sg17
S'species count'
p107
sbasS'_children_'
p108
(lp109
sbasS'capt_crit_selector'
p110
Nsg41
(lp111
sS'selected_capt_crit_label'
p112
g49
sS'end_crit_selector'
p113
Nsg36
(lp114
sg52
(lp115
sS'plot_targets'
p116
(lp117
S'iteration'
p118
aS'time'
p119
aS'fixed_time'
p120
aS'AraC2'
p121
aS'LacI'
p122
aS'GFP'
p123
aS'AraC'
p124
aS'LacI4'
p125
aS'CFP'
p126
aS'gamma_L'
p127
aS'tau_L'
p128
aS'gamma_G'
p129
aS'gamma_A'
p130
aS'gamma_C'
p131
aS'tau_A'
p132
aS'lambda_C'
p133
aS'kappa_C'
p134
aS'eta_L'
p135
aS'kappa_A2'
p136
aS'eta_A'
p137
aS'gamma_L4'
p138
aS'alpha_GLA'
p139
aS'AHL_pwm_tau'
p140
aS'k_mu'
p141
aS'k_L'
p142
aS'k_A'
p143
aS'gamma_A2'
p144
aS'AHL_pwm_phi'
p145
aS'alpha_CA'
p146
aS'mu'
p147
aS'kappa_A'
p148
aS'kappa_G'
p149
aS'AHL_pwm'
p150
aS'kappa_L4'
p151
aS'kappa_L'
p152
aS'g_L4'
p153
aS'g_A'
p154
aS'g_A2'
p155
aS'g_L'
p156
aS'lambda_CA'
p157
aS'g_G'
p158
aS'lambda_GLA'
p159
aS'g_C'
p160
asS'widg_templates_plot_targets'
p161
(lp162
sS'selected_end_crit'
p163
Nsg38
(lp164
sg29
(lp165
sg32
g4
sg33
I01
sS'capture_criteria'
p166
(lp167
g1
(g102
g3
NtRp168
(dp169
g8
g1
(g9
g3
NtRp170
(dp171
g12
(tsg13
g14
sg16
g102
sg17
S'species scaler increment'
p172
sbsg19
S'scaler increment criterion'
p173
sg29
(lp174
sS'increment'
p175
F1
sg32
g60
sg33
I01
sS'keys'
p176
(lp177
g118
ag119
ag121
ag122
ag123
ag124
ag125
ag126
asg34
(lp178
sg38
(lp179
sg36
(lp180
sg41
(lp181
sS'key'
p182
S'time'
p183
sg46
(lp184
sg85
I01
sg52
(lp185
sg13
(lp186
g40
ag8
ag85
ag182
ag176
ag175
asg50
g88
sg108
(lp187
sbasS'widg_templates_end_criteria'
p188
(lp189
sg46
(lp190
sg34
(lp191
sg31
I00
sS'selected_capt_crit'
p192
Nsg50
(lp193
g62
asbsS'tree_reference'
p194
NsS'multiprocess_plan'
p195
g1
(clibs.modular_core.libmultiprocess
multiprocess_plan
p196
g3
NtRp197
(dp198
g8
g1
(g9
g3
NtRp199
(dp200
g12
(tsg13
g14
sg16
g196
sg17
g18
sbsg19
S'multiprocess plan'
p201
sg29
(lp202
sg31
I01
sg32
g4
sg33
I01
sS'worker_count'
p203
I8
sg38
(lp204
sg36
(lp205
sg41
(lp206
sS'worker_report'
p207
(lp208
S'location dex: 1 runs this round: 1 in: 1.28700017929 seconds'
p209
asg46
(lp210
sS'gpu_worker'
p211
(ilibs.gpu.lib_gpu
CL
p212
(dp213
S'gpu_cl_extensions'
p214
(dp215
S'addition'
p216
S'C:\\Users\\bartl_000\\Desktop\\Work\\Modular\\libs\\gpu\\lib_gpu1to1addition.cl'
p217
sS'multiplication'
p218
S'C:\\Users\\bartl_000\\Desktop\\Work\\Modular\\libs\\gpu\\lib_gpu1to1multiplication.cl'
p219
sS'subtraction'
p220
S'C:\\Users\\bartl_000\\Desktop\\Work\\Modular\\libs\\gpu\\lib_gpu1to1subtraction.cl'
p221
sS'division'
p222
S'C:\\Users\\bartl_000\\Desktop\\Work\\Modular\\libs\\gpu\\lib_gpu1to1division.cl'
p223
ssbsg34
(lp224
sg50
(lp225
g199
asg52
(lp226
sbsS'_module_memory_'
p227
(lp228
sS'num_trajectories'
p229
I1
sg36
(lp230
sg52
(lp231
sS'mcfg_path'
p232
VC:/Users/bartl_000/Desktop/Work/Modular/chemicallite/QEntrain2.mcfg
p233
sS'output_plan'
p234
g1
(clibs.modular_core.liboutput
output_plan
p235
g3
NtRp236
g1
(g5
g6
(dp237
g8
g1
(g9
g3
NtRp238
(dp239
g12
(tsg13
g14
sg16
g235
sg17
g18
sbsg19
S'Simulation'
p240
sS'default_paths_vtk'
p241
I01
sS'default_targets_txt'
p242
I01
sg41
(lp243
sS'save_directory'
p244
S'C:\\Users\\bartl_000\\Desktop\\Work\\Modular\\chemicallite\\output'
p245
sS'output_pkl'
p246
I00
sg52
(lp247
sS'default_targets_vtk'
p248
I01
sg34
(lp249
sg38
(lp250
sg36
(lp251
sS'_parent'
p252
NsS'default_targets_plt'
p253
I01
sS'writers'
p254
(lp255
g1
(clibs.modular_core.liboutput
writer_vtk
p256
g3
NtRp257
(dp258
g8
g1
(g9
g3
NtRp259
(dp260
g12
(tsg13
g14
sg16
g256
sg17
S'vtk writer object'
p261
sbsg19
S'mobj__'
p262
sg29
(lp263
sg32
g236
sg33
I01
sg34
(lp264
sS'axes_manager'
p265
g1
(clibs.modular_core.liboutput
plot_axes_manager
p266
g3
NtRp267
(dp268
g8
g1
(g9
g3
NtRp269
(dp270
g12
(tsg13
g14
sg16
g266
sg17
g18
sbsg19
g262
sg29
(lp271
sg32
g257
sg33
I00
sg38
(lp272
sg36
(lp273
sg41
(lp274
sg46
(lp275
sg52
(lp276
sg34
(lp277
sg50
(lp278
g269
asg108
(lp279
sbsg36
(lp280
sg38
(lp281
sS'filenames'
p282
(lp283
sg41
(lp284
sS'iteration_resolution'
p285
I1
sg46
(lp286
sg52
(lp287
sg13
(lp288
g40
ag8
ag282
ag285
asg50
(lp289
g1
(g9
g3
NtRp290
(dp291
g12
(tsg13
g14
sg16
g256
sg17
S'vtk'
p292
sbag1
(g9
g3
NtRp293
(dp294
g12
(tsg13
g14
sg16
clibs.modular_core.liboutput
writer_pkl
p295
sg17
S'pickle'
p296
sbag1
(g9
g3
NtRp297
(dp298
g12
(tsg13
g14
sg16
clibs.modular_core.liboutput
writer_txt
p299
sg17
S'text'
p300
sbag1
(g9
g3
NtRp301
(dp302
g12
(tsg13
g14
sg16
clibs.modular_core.liboutput
writer_plt
p303
sg17
S'plot'
p304
sbasg108
(lp305
g267
asbag1
(g295
g3
NtRp306
(dp307
g8
g1
(g9
g3
NtRp308
(dp309
g12
(tsg13
g14
sg16
g295
sg17
S'pkl writer object'
p310
sbsg19
g262
sg29
(lp311
sg32
g236
sg33
I01
sg34
(lp312
sg265
g1
(g266
g3
NtRp313
(dp314
g8
g1
(g9
g3
NtRp315
(dp316
g12
(tsg13
g14
sg16
g266
sg17
g18
sbsg19
g262
sg29
(lp317
sg32
g306
sg33
I00
sg38
(lp318
sg36
(lp319
sg41
(lp320
sg46
(lp321
sg52
(lp322
sg34
(lp323
sg50
(lp324
g315
asg108
(lp325
sbsg36
(lp326
sg38
(lp327
sg282
g283
sg41
(lp328
sg285
I1
sg46
(lp329
sg52
(lp330
sg13
(lp331
g40
ag8
ag282
asg50
g289
sg108
(lp332
g313
asbag1
(g299
g3
NtRp333
(dp334
g8
g1
(g9
g3
NtRp335
(dp336
g12
(tsg13
g14
sg16
g299
sg17
S'txt writer object'
p337
sbsg19
g262
sg29
(lp338
sg32
g236
sg33
I01
sg34
(lp339
sg265
g1
(g266
g3
NtRp340
(dp341
g8
g1
(g9
g3
NtRp342
(dp343
g12
(tsg13
g14
sg16
g266
sg17
g18
sbsg19
g262
sg29
(lp344
sg32
g333
sg33
I00
sg38
(lp345
sg36
(lp346
sg41
(lp347
sg46
(lp348
sg52
(lp349
sg34
(lp350
sg50
(lp351
g342
asg108
(lp352
sbsg36
(lp353
sg38
(lp354
sg282
g283
sg41
(lp355
sg46
(lp356
sg52
(lp357
sg13
(lp358
g40
ag8
ag282
asg50
g289
sg108
(lp359
g340
asbag1
(g303
g3
NtRp360
(dp361
g8
g1
(g9
g3
NtRp362
(dp363
g12
(tsg13
g14
sg16
g303
sg17
S'plt writer object'
p364
sbsg19
g262
sg29
(lp365
sS'plt_window'
p366
Nsg32
g236
sg33
I01
sg34
(lp367
sg265
g1
(g266
g3
NtRp368
(dp369
g8
g1
(g9
g3
NtRp370
(dp371
g12
(tsg13
g14
sg16
g266
sg17
g18
sbsg19
g262
sg29
(lp372
sS'x_title'
p373
S'x-title'
p374
sg32
g360
sg33
I00
sS'y_title'
p375
S'y-title'
p376
sS'title'
p377
g377
sg38
(lp378
sg36
(lp379
sg41
(lp380
sg46
(lp381
sg52
(lp382
sg34
(lp383
sg50
(lp384
g370
asg108
(lp385
sbsg36
(lp386
sg38
(lp387
sg282
g283
sg41
(lp388
sg285
I1
sg46
(lp389
sg52
(lp390
sg13
(lp391
g40
ag8
ag282
ag285
asg50
g289
sg108
(lp392
g368
asbasS'output_plt'
p393
I01
sS'default_paths_plt'
p394
I01
sS'flat_data'
p395
I00
sg29
(lp396
sg32
g4
sg33
I01
sS'targeted'
p397
(lp398
g119
ag120
ag157
ag159
aS'GFP'
p399
aS'CFP'
p400
asS'outputs'
p401
(lp402
(lp403
g119
ag120
ag157
ag159
ag399
ag400
aa(lp404
g119
ag120
ag157
ag159
ag399
ag400
aa(lp405
g119
ag120
ag157
ag159
ag399
ag400
aa(lp406
g119
ag120
ag157
ag159
ag399
ag400
aasS'save_filename'
p407
S'ensemble_output.1'
p408
sg282
(dp409
S'vtk filename'
p410
S''
sS'txt filename'
p411
S''
sS'pkl filename'
p412
S''
sS'plt filename'
p413
S''
ssS'output_txt'
p414
I00
sg46
(lp415
sg13
(lp416
g40
ag31
aS'output_vtk'
p417
ag246
ag414
ag393
ag244
ag407
ag282
aS'directories'
p418
ag397
asS'default_paths_txt'
p419
I01
sS'default_paths_pkl'
p420
I01
sg31
I01
sg418
(dp421
S'vtk directory'
p422
S''
sS'txt directory'
p423
S''
sS'pkl directory'
p424
S''
sS'plt directory'
p425
S''
ssS'partition'
p426
(dp427
S'template owners'
p428
g1
(g5
g6
(dp429
g252
Nsg254
g255
stRp430
g430
bssg417
I00
sS'default_targets_pkl'
p431
I01
sg50
(lp432
g238
asg108
g255
stRp433
g433
bbsg377
g377
sS'cartographer_plan'
p434
g1
(clibs.modular_core.libgeometry
cartographer_plan
p435
g3
NtRp436
(dp437
g8
g1
(g9
g3
NtRp438
(dp439
g12
(tsg13
g14
sg16
g435
sg17
g18
sbsg19
S'Parameter Scan'
p440
sg29
(lp441
sg31
I00
sg32
g4
sg33
I01
sS'controller_ref'
p442
NsS'trajectory'
p443
(lp444
(lp445
I0
ag1
(clibs.modular_core.libgeometry
parameter_space_location
p446
g3
NtRp447
(dp448
g8
g1
(g9
g3
NtRp449
(dp450
g12
(tsg13
g14
sg16
g446
sg17
g18
sbsg19
g262
sg32
Nsg33
I01
sS'trajectory_count'
p451
I500
sS'location'
p452
(lp453
F1.25
aF1.25
asg34
(lp454
sg50
(lp455
g449
asbaa(lp456
I1
ag1
(g446
g3
NtRp457
(dp458
g8
g1
(g9
g3
NtRp459
(dp460
g12
(tsg13
g14
sg16
g446
sg17
g18
sbsg19
g262
sg32
Nsg33
I01
sg451
I500
sg452
(lp461
F1.25
aF1.375
asg34
(lp462
sg50
(lp463
g459
asbaa(lp464
I2
ag1
(g446
g3
NtRp465
(dp466
g8
g1
(g9
g3
NtRp467
(dp468
g12
(tsg13
g14
sg16
g446
sg17
g18
sbsg19
g262
sg32
Nsg33
I01
sg451
I500
sg452
(lp469
F1.25
aF1.5
asg34
(lp470
sg50
(lp471
g467
asbaa(lp472
I3
ag1
(g446
g3
NtRp473
(dp474
g8
g1
(g9
g3
NtRp475
(dp476
g12
(tsg13
g14
sg16
g446
sg17
g18
sbsg19
g262
sg32
Nsg33
I01
sg451
I500
sg452
(lp477
F1.25
aF1.625
asg34
(lp478
sg50
(lp479
g475
asbaa(lp480
I4
ag1
(g446
g3
NtRp481
(dp482
g8
g1
(g9
g3
NtRp483
(dp484
g12
(tsg13
g14
sg16
g446
sg17
g18
sbsg19
g262
sg32
Nsg33
I01
sg451
I500
sg452
(lp485
F1.25
aF1.75
asg34
(lp486
sg50
(lp487
g483
asbaa(lp488
I5
ag1
(g446
g3
NtRp489
(dp490
g8
g1
(g9
g3
NtRp491
(dp492
g12
(tsg13
g14
sg16
g446
sg17
g18
sbsg19
g262
sg32
Nsg33
I01
sg451
I500
sg452
(lp493
F1.375
aF1.25
asg34
(lp494
sg50
(lp495
g491
asbaa(lp496
I6
ag1
(g446
g3
NtRp497
(dp498
g8
g1
(g9
g3
NtRp499
(dp500
g12
(tsg13
g14
sg16
g446
sg17
g18
sbsg19
g262
sg32
Nsg33
I01
sg451
I500
sg452
(lp501
F1.375
aF1.375
asg34
(lp502
sg50
(lp503
g499
asbaa(lp504
I7
ag1
(g446
g3
NtRp505
(dp506
g8
g1
(g9
g3
NtRp507
(dp508
g12
(tsg13
g14
sg16
g446
sg17
g18
sbsg19
g262
sg32
Nsg33
I01
sg451
I500
sg452
(lp509
F1.375
aF1.5
asg34
(lp510
sg50
(lp511
g507
asbaa(lp512
I8
ag1
(g446
g3
NtRp513
(dp514
g8
g1
(g9
g3
NtRp515
(dp516
g12
(tsg13
g14
sg16
g446
sg17
g18
sbsg19
g262
sg32
Nsg33
I01
sg451
I500
sg452
(lp517
F1.375
aF1.625
asg34
(lp518
sg50
(lp519
g515
asbaa(lp520
I9
ag1
(g446
g3
NtRp521
(dp522
g8
g1
(g9
g3
NtRp523
(dp524
g12
(tsg13
g14
sg16
g446
sg17
g18
sbsg19
g262
sg32
Nsg33
I01
sg451
I500
sg452
(lp525
F1.375
aF1.75
asg34
(lp526
sg50
(lp527
g523
asbaa(lp528
I10
ag1
(g446
g3
NtRp529
(dp530
g8
g1
(g9
g3
NtRp531
(dp532
g12
(tsg13
g14
sg16
g446
sg17
g18
sbsg19
g262
sg32
Nsg33
I01
sg451
I500
sg452
(lp533
F1.5
aF1.25
asg34
(lp534
sg50
(lp535
g531
asbaa(lp536
I11
ag1
(g446
g3
NtRp537
(dp538
g8
g1
(g9
g3
NtRp539
(dp540
g12
(tsg13
g14
sg16
g446
sg17
g18
sbsg19
g262
sg32
Nsg33
I01
sg451
I500
sg452
(lp541
F1.5
aF1.375
asg34
(lp542
sg50
(lp543
g539
asbaa(lp544
I12
ag1
(g446
g3
NtRp545
(dp546
g8
g1
(g9
g3
NtRp547
(dp548
g12
(tsg13
g14
sg16
g446
sg17
g18
sbsg19
g262
sg32
Nsg33
I01
sg451
I500
sg452
(lp549
F1.5
aF1.5
asg34
(lp550
sg50
(lp551
g547
asbaa(lp552
I13
ag1
(g446
g3
NtRp553
(dp554
g8
g1
(g9
g3
NtRp555
(dp556
g12
(tsg13
g14
sg16
g446
sg17
g18
sbsg19
g262
sg32
Nsg33
I01
sg451
I500
sg452
(lp557
F1.5
aF1.625
asg34
(lp558
sg50
(lp559
g555
asbaa(lp560
I14
ag1
(g446
g3
NtRp561
(dp562
g8
g1
(g9
g3
NtRp563
(dp564
g12
(tsg13
g14
sg16
g446
sg17
g18
sbsg19
g262
sg32
Nsg33
I01
sg451
I500
sg452
(lp565
F1.5
aF1.75
asg34
(lp566
sg50
(lp567
g563
asbaa(lp568
I15
ag1
(g446
g3
NtRp569
(dp570
g8
g1
(g9
g3
NtRp571
(dp572
g12
(tsg13
g14
sg16
g446
sg17
g18
sbsg19
g262
sg32
Nsg33
I01
sg451
I500
sg452
(lp573
F1.625
aF1.25
asg34
(lp574
sg50
(lp575
g571
asbaa(lp576
I16
ag1
(g446
g3
NtRp577
(dp578
g8
g1
(g9
g3
NtRp579
(dp580
g12
(tsg13
g14
sg16
g446
sg17
g18
sbsg19
g262
sg32
Nsg33
I01
sg451
I500
sg452
(lp581
F1.625
aF1.375
asg34
(lp582
sg50
(lp583
g579
asbaa(lp584
I17
ag1
(g446
g3
NtRp585
(dp586
g8
g1
(g9
g3
NtRp587
(dp588
g12
(tsg13
g14
sg16
g446
sg17
g18
sbsg19
g262
sg32
Nsg33
I01
sg451
I500
sg452
(lp589
F1.625
aF1.5
asg34
(lp590
sg50
(lp591
g587
asbaa(lp592
I18
ag1
(g446
g3
NtRp593
(dp594
g8
g1
(g9
g3
NtRp595
(dp596
g12
(tsg13
g14
sg16
g446
sg17
g18
sbsg19
g262
sg32
Nsg33
I01
sg451
I500
sg452
(lp597
F1.625
aF1.625
asg34
(lp598
sg50
(lp599
g595
asbaa(lp600
I19
ag1
(g446
g3
NtRp601
(dp602
g8
g1
(g9
g3
NtRp603
(dp604
g12
(tsg13
g14
sg16
g446
sg17
g18
sbsg19
g262
sg32
Nsg33
I01
sg451
I500
sg452
(lp605
F1.625
aF1.75
asg34
(lp606
sg50
(lp607
g603
asbaa(lp608
I20
ag1
(g446
g3
NtRp609
(dp610
g8
g1
(g9
g3
NtRp611
(dp612
g12
(tsg13
g14
sg16
g446
sg17
g18
sbsg19
g262
sg32
Nsg33
I01
sg451
I500
sg452
(lp613
F1.75
aF1.25
asg34
(lp614
sg50
(lp615
g611
asbaa(lp616
I21
ag1
(g446
g3
NtRp617
(dp618
g8
g1
(g9
g3
NtRp619
(dp620
g12
(tsg13
g14
sg16
g446
sg17
g18
sbsg19
g262
sg32
Nsg33
I01
sg451
I500
sg452
(lp621
F1.75
aF1.375
asg34
(lp622
sg50
(lp623
g619
asbaa(lp624
I22
ag1
(g446
g3
NtRp625
(dp626
g8
g1
(g9
g3
NtRp627
(dp628
g12
(tsg13
g14
sg16
g446
sg17
g18
sbsg19
g262
sg32
Nsg33
I01
sg451
I500
sg452
(lp629
F1.75
aF1.5
asg34
(lp630
sg50
(lp631
g627
asbaa(lp632
I23
ag1
(g446
g3
NtRp633
(dp634
g8
g1
(g9
g3
NtRp635
(dp636
g12
(tsg13
g14
sg16
g446
sg17
g18
sbsg19
g262
sg32
Nsg33
I01
sg451
I500
sg452
(lp637
F1.75
aF1.625
asg34
(lp638
sg50
(lp639
g635
asbaa(lp640
I24
ag1
(g446
g3
NtRp641
(dp642
g8
g1
(g9
g3
NtRp643
(dp644
g12
(tsg13
g14
sg16
g446
sg17
g18
sbsg19
g262
sg32
Nsg33
I01
sg451
I500
sg452
(lp645
F1.75
aF1.75
asg34
(lp646
sg50
(lp647
g643
asbaasg118
I0
sS'parameter_space'
p648
g1
(clibs.modular_core.libgeometry
parameter_space
p649
g3
NtRp650
(dp651
g8
g1
(g9
g3
NtRp652
(dp653
g12
(tsg13
g14
sg16
g649
sg17
g18
sbsg19
g262
sS'dimensions'
p654
I2
sg32
g436
sg33
I01
sS'steps'
p655
(lp656
sS'subspaces'
p657
(lp658
g1
(clibs.modular_core.libgeometry
one_dim_space
p659
g3
NtRp660
(dp661
S'bounds'
p662
(lp663
S'-10e64'
p664
aS'10e64'
p665
asg40
S'kappa_C : value'
p666
sS'tag'
p667
S'scaler'
p668
sS'scalers'
p669
(lp670
sg182
S'value'
p671
sS'inst'
p672
g1
(clibs.modules.libchemicallite
variable
p673
g3
NtRp674
(dp675
g8
g1
(g9
g3
NtRp676
(dp677
g12
(tsg13
g14
sg16
g673
sg17
g18
sbsg19
g134
sg29
(lp678
sg32
g4
sg33
I01
sg671
S'1.5'
p679
sg36
(lp680
sg41
(lp681
sg38
(lp682
sg46
(lp683
sS'brand_new'
p684
I00
sg34
(lp685
sg50
(lp686
g676
asg52
(lp687
sbsbag1
(g659
g3
NtRp688
(dp689
g662
(lp690
g664
ag665
asg40
S'kappa_G : value'
p691
sg667
g668
sg669
(lp692
sg182
g671
sg672
g1
(g673
g3
NtRp693
(dp694
g8
g1
(g9
g3
NtRp695
(dp696
g12
(tsg13
g14
sg16
g673
sg17
g18
sbsg19
g149
sg29
(lp697
sg32
g4
sg33
I01
sg671
S'1.25'
p698
sg36
(lp699
sg41
(lp700
sg38
(lp701
sg46
(lp702
sg684
I00
sg34
(lp703
sg50
(lp704
g695
asg52
(lp705
sbsbasS'param_lookup'
p706
(lp707
F0.5
aF1
asg34
(lp708
sg50
(lp709
g652
asbsg38
(lp710
sg36
(lp711
sg41
(lp712
sS'traj_count'
p713
I500
sS'key_path'
p714
S''
sg46
(lp715
sS'parameter_space_mobjs'
p716
g1
(g5
g6
(dp717
S'reactions'
p718
(lp719
g1
(clibs.modules.libchemicallite
reaction
p720
g3
NtRp721
(dp722
g8
g1
(g9
g3
NtRp723
(dp724
g12
(tsg13
g14
sg16
g720
sg17
g18
sbsg19
S'production of GFP LacI AraC'
p725
sg41
(lp726
sS'rate'
p727
S'lambda_GLA'
p728
sg29
(lp729
sS'occurrences'
p730
(lp731
sg36
(lp732
sg52
(lp733
sS'propensity_scheme'
p734
S'classic'
p735
sg34
(lp736
sS'system'
p737
Nsg38
(lp738
sS'propensity'
p739
F1
sS'used'
p740
(lp741
sg32
g4
sg33
I01
sg46
(lp742
sg13
(lp743
g40
ag734
ag727
ag740
aS'produced'
p744
asg744
(lp745
(g123
I1
tp746
a(g122
I1
tp747
a(g124
I1
tp748
asS'propensity_minimum'
p749
F1.0000000000000001e-30
sg50
(lp750
g723
asg108
(lp751
g1
(clibs.modular_core.libgeometry
interface_template_p_space_axis
p752
g3
NtRp753
(dp754
S'p_sp_bounds'
p755
(lp756
F9.9999999999999995e-08
aF1000
asg12
(tsg32
g721
sS'p_sp_continuous'
p757
I01
sg33
I00
sS'gui_give_p_sp_control'
p758
I01
sS'gui_give_p_sp_cont_disc_control'
p759
I00
sS'instance'
p760
g721
sg182
g727
sg13
(lp761
S'reference'
p762
aS'linkages'
p763
asg36
(lp764
g1
(clibs.gui.libqtgui_masons
interface_template_gui
p765
g3
NtRp766
(dp767
S'box_labels'
p768
(lp769
S'Parameter Space'
p770
asg12
(tsg176
(lp771
(lp772
S'contribute_to_p_sp'
p773
aasS'labels'
p774
(lp775
(lp776
S'Contribute to Parameter Space'
p777
aasS'instances'
p778
(lp779
(lp780
g753
aasS'append_instead'
p781
(lp782
I00
asS'gui_package'
p783
S'PySide'
p784
sS'widgets'
p785
(lp786
S'check_set'
p787
asbasg773
I00
sbag1
(g752
g3
NtRp788
(dp789
g755
(lp790
F9.9999999999999995e-08
aF1000
asg12
(tsg32
g721
sg757
I01
sg33
I00
sg758
I01
sg759
I00
sg760
g721
sg182
g727
sg13
g761
sg36
(lp791
g1
(g765
g3
NtRp792
(dp793
g768
(lp794
g770
asg12
(tsg176
(lp795
(lp796
g773
aasg774
(lp797
(lp798
g777
aasg778
(lp799
(lp800
g788
aasg781
(lp801
I00
asg783
g784
sg785
(lp802
g787
asbasg773
I00
sbag1
(g752
g3
NtRp803
(dp804
g755
(lp805
F9.9999999999999995e-08
aF1000
asg12
(tsg32
g721
sg757
I01
sg33
I00
sg758
I01
sg759
I00
sg760
g721
sg182
g727
sg13
g761
sg36
(lp806
g1
(g765
g3
NtRp807
(dp808
g768
(lp809
g770
asg12
(tsg176
(lp810
(lp811
g773
aasg774
(lp812
(lp813
g777
aasg778
(lp814
(lp815
g803
aasg781
(lp816
I00
asg783
g784
sg785
(lp817
g787
asbasg773
I00
sbag1
(g752
g3
NtRp818
(dp819
g755
(lp820
F9.9999999999999995e-08
aF1000
asg12
(tsg32
g721
sg757
I01
sg33
I00
sg758
I01
sg759
I00
sg760
g721
sg182
g727
sg13
g761
sg36
(lp821
g1
(g765
g3
NtRp822
(dp823
g768
(lp824
g770
asg12
(tsg176
(lp825
(lp826
g773
aasg774
(lp827
(lp828
g777
aasg778
(lp829
(lp830
g818
aasg781
(lp831
I00
asg783
g784
sg785
(lp832
g787
asbasg773
I00
sbag1
(g752
g3
NtRp833
(dp834
g755
(lp835
F9.9999999999999995e-08
aF1000
asg12
(tsg32
g721
sg757
I01
sg33
I00
sg758
I01
sg759
I00
sg760
g721
sg182
g727
sg13
g761
sg36
(lp836
g1
(g765
g3
NtRp837
(dp838
g768
(lp839
g770
asg12
(tsg176
(lp840
(lp841
g773
aasg774
(lp842
(lp843
g777
aasg778
(lp844
(lp845
g833
aasg781
(lp846
I00
asg783
g784
sg785
(lp847
g787
asbasg773
I00
sbag1
(g752
g3
NtRp848
(dp849
g755
(lp850
F9.9999999999999995e-08
aF1000
asg12
(tsg32
g721
sg757
I01
sg33
I00
sg758
I01
sg759
I00
sg760
g721
sg182
g727
sg13
g761
sg36
(lp851
g1
(g765
g3
NtRp852
(dp853
g768
(lp854
g770
asg12
(tsg176
(lp855
(lp856
g773
aasg774
(lp857
(lp858
g777
aasg778
(lp859
(lp860
g848
aasg781
(lp861
I00
asg783
g784
sg785
(lp862
g787
asbasg773
I00
sbasbag1
(g720
g3
NtRp863
(dp864
g8
g1
(g9
g3
NtRp865
(dp866
g12
(tsg13
g14
sg16
g720
sg17
g18
sbsg19
S'dimerization of AraC'
p867
sg41
(lp868
sg727
S'tau_A'
p869
sg29
(lp870
sg730
g731
sg36
(lp871
sg52
(lp872
sg734
g735
sg34
(lp873
sg737
Nsg38
(lp874
sg739
F1
sg740
(lp875
(g124
I2
tp876
asg32
g4
sg33
I01
sg46
(lp877
sg13
g743
sg744
(lp878
(g121
I1
tp879
asg749
F1.0000000000000001e-30
sg50
(lp880
g865
asg108
(lp881
g1
(g752
g3
NtRp882
(dp883
g755
(lp884
F9.9999999999999995e-08
aF1000
asg12
(tsg32
g863
sg757
I01
sg33
I00
sg758
I01
sg759
I00
sg760
g863
sg182
g727
sg13
g761
sg36
(lp885
g1
(g765
g3
NtRp886
(dp887
g768
(lp888
g770
asg12
(tsg176
(lp889
(lp890
g773
aasg774
(lp891
(lp892
g777
aasg778
(lp893
(lp894
g882
aasg781
(lp895
I00
asg783
g784
sg785
(lp896
g787
asbasg773
I00
sbag1
(g752
g3
NtRp897
(dp898
g755
(lp899
F9.9999999999999995e-08
aF1000
asg12
(tsg32
g863
sg757
I01
sg33
I00
sg758
I01
sg759
I00
sg760
g863
sg182
g727
sg13
g761
sg36
(lp900
g1
(g765
g3
NtRp901
(dp902
g768
(lp903
g770
asg12
(tsg176
(lp904
(lp905
g773
aasg774
(lp906
(lp907
g777
aasg778
(lp908
(lp909
g897
aasg781
(lp910
I00
asg783
g784
sg785
(lp911
g787
asbasg773
I00
sbag1
(g752
g3
NtRp912
(dp913
g755
(lp914
F9.9999999999999995e-08
aF1000
asg12
(tsg32
g863
sg757
I01
sg33
I00
sg758
I01
sg759
I00
sg760
g863
sg182
g727
sg13
g761
sg36
(lp915
g1
(g765
g3
NtRp916
(dp917
g768
(lp918
g770
asg12
(tsg176
(lp919
(lp920
g773
aasg774
(lp921
(lp922
g777
aasg778
(lp923
(lp924
g912
aasg781
(lp925
I00
asg783
g784
sg785
(lp926
g787
asbasg773
I00
sbag1
(g752
g3
NtRp927
(dp928
g755
(lp929
F9.9999999999999995e-08
aF1000
asg12
(tsg32
g863
sg757
I01
sg33
I00
sg758
I01
sg759
I00
sg760
g863
sg182
g727
sg13
g761
sg36
(lp930
g1
(g765
g3
NtRp931
(dp932
g768
(lp933
g770
asg12
(tsg176
(lp934
(lp935
g773
aasg774
(lp936
(lp937
g777
aasg778
(lp938
(lp939
g927
aasg781
(lp940
I00
asg783
g784
sg785
(lp941
g787
asbasg773
I00
sbag1
(g752
g3
NtRp942
(dp943
g755
(lp944
F9.9999999999999995e-08
aF1000
asg12
(tsg32
g863
sg757
I01
sg33
I00
sg758
I01
sg759
I00
sg760
g863
sg182
g727
sg13
g761
sg36
(lp945
g1
(g765
g3
NtRp946
(dp947
g768
(lp948
g770
asg12
(tsg176
(lp949
(lp950
g773
aasg774
(lp951
(lp952
g777
aasg778
(lp953
(lp954
g942
aasg781
(lp955
I00
asg783
g784
sg785
(lp956
g787
asbasg773
I00
sbag1
(g752
g3
NtRp957
(dp958
g755
(lp959
F9.9999999999999995e-08
aF1000
asg12
(tsg32
g863
sg757
I01
sg33
I00
sg758
I01
sg759
I00
sg760
g863
sg182
g727
sg13
g761
sg36
(lp960
g1
(g765
g3
NtRp961
(dp962
g768
(lp963
g770
asg12
(tsg176
(lp964
(lp965
g773
aasg774
(lp966
(lp967
g777
aasg778
(lp968
(lp969
g957
aasg781
(lp970
I00
asg783
g784
sg785
(lp971
g787
asbasg773
I00
sbasbag1
(g720
g3
NtRp972
(dp973
g8
g1
(g9
g3
NtRp974
(dp975
g12
(tsg13
g14
sg16
g720
sg17
g18
sbsg19
S'inverse-dimerization of AraC2'
p976
sg41
(lp977
sg727
S'eta_A'
p978
sg29
(lp979
sg730
g731
sg36
(lp980
sg52
(lp981
sg734
g735
sg34
(lp982
sg737
Nsg38
(lp983
sg739
F1
sg740
(lp984
(S'AraC2'
I1
tp985
asg32
g4
sg33
I01
sg46
(lp986
sg13
g743
sg744
(lp987
(g124
I2
tp988
asg749
F1.0000000000000001e-30
sg50
(lp989
g974
asg108
(lp990
g1
(g752
g3
NtRp991
(dp992
g755
(lp993
F9.9999999999999995e-08
aF1000
asg12
(tsg32
g972
sg757
I01
sg33
I00
sg758
I01
sg759
I00
sg760
g972
sg182
g727
sg13
g761
sg36
(lp994
g1
(g765
g3
NtRp995
(dp996
g768
(lp997
g770
asg12
(tsg176
(lp998
(lp999
g773
aasg774
(lp1000
(lp1001
g777
aasg778
(lp1002
(lp1003
g991
aasg781
(lp1004
I00
asg783
g784
sg785
(lp1005
g787
asbasg773
I00
sbag1
(g752
g3
NtRp1006
(dp1007
g755
(lp1008
F9.9999999999999995e-08
aF1000
asg12
(tsg32
g972
sg757
I01
sg33
I00
sg758
I01
sg759
I00
sg760
g972
sg182
g727
sg13
g761
sg36
(lp1009
g1
(g765
g3
NtRp1010
(dp1011
g768
(lp1012
g770
asg12
(tsg176
(lp1013
(lp1014
g773
aasg774
(lp1015
(lp1016
g777
aasg778
(lp1017
(lp1018
g1006
aasg781
(lp1019
I00
asg783
g784
sg785
(lp1020
g787
asbasg773
I00
sbag1
(g752
g3
NtRp1021
(dp1022
g755
(lp1023
F9.9999999999999995e-08
aF1000
asg12
(tsg32
g972
sg757
I01
sg33
I00
sg758
I01
sg759
I00
sg760
g972
sg182
g727
sg13
g761
sg36
(lp1024
g1
(g765
g3
NtRp1025
(dp1026
g768
(lp1027
g770
asg12
(tsg176
(lp1028
(lp1029
g773
aasg774
(lp1030
(lp1031
g777
aasg778
(lp1032
(lp1033
g1021
aasg781
(lp1034
I00
asg783
g784
sg785
(lp1035
g787
asbasg773
I00
sbag1
(g752
g3
NtRp1036
(dp1037
g755
(lp1038
F9.9999999999999995e-08
aF1000
asg12
(tsg32
g972
sg757
I01
sg33
I00
sg758
I01
sg759
I00
sg760
g972
sg182
g727
sg13
g761
sg36
(lp1039
g1
(g765
g3
NtRp1040
(dp1041
g768
(lp1042
g770
asg12
(tsg176
(lp1043
(lp1044
g773
aasg774
(lp1045
(lp1046
g777
aasg778
(lp1047
(lp1048
g1036
aasg781
(lp1049
I00
asg783
g784
sg785
(lp1050
g787
asbasg773
I00
sbag1
(g752
g3
NtRp1051
(dp1052
g755
(lp1053
F9.9999999999999995e-08
aF1000
asg12
(tsg32
g972
sg757
I01
sg33
I00
sg758
I01
sg759
I00
sg760
g972
sg182
g727
sg13
g761
sg36
(lp1054
g1
(g765
g3
NtRp1055
(dp1056
g768
(lp1057
g770
asg12
(tsg176
(lp1058
(lp1059
g773
aasg774
(lp1060
(lp1061
g777
aasg778
(lp1062
(lp1063
g1051
aasg781
(lp1064
I00
asg783
g784
sg785
(lp1065
g787
asbasg773
I00
sbag1
(g752
g3
NtRp1066
(dp1067
g755
(lp1068
F9.9999999999999995e-08
aF1000
asg12
(tsg32
g972
sg757
I01
sg33
I00
sg758
I01
sg759
I00
sg760
g972
sg182
g727
sg13
g761
sg36
(lp1069
g1
(g765
g3
NtRp1070
(dp1071
g768
(lp1072
g770
asg12
(tsg176
(lp1073
(lp1074
g773
aasg774
(lp1075
(lp1076
g777
aasg778
(lp1077
(lp1078
g1066
aasg781
(lp1079
I00
asg783
g784
sg785
(lp1080
g787
asbasg773
I00
sbasbag1
(g720
g3
NtRp1081
(dp1082
g8
g1
(g9
g3
NtRp1083
(dp1084
g12
(tsg13
g14
sg16
g720
sg17
g18
sbsg19
S'tetramerization of LacI'
p1085
sg41
(lp1086
sg727
S'tau_L'
p1087
sg29
(lp1088
sg730
g731
sg36
(lp1089
sg52
(lp1090
sg734
g735
sg34
(lp1091
sg737
Nsg38
(lp1092
sg739
F1
sg740
(lp1093
(g122
I4
tp1094
asg32
g4
sg33
I01
sg46
(lp1095
sg13
g743
sg744
(lp1096
(g125
I1
tp1097
asg749
F1.0000000000000001e-30
sg50
(lp1098
g1083
asg108
(lp1099
g1
(g752
g3
NtRp1100
(dp1101
g755
(lp1102
F9.9999999999999995e-08
aF1000
asg12
(tsg32
g1081
sg757
I01
sg33
I00
sg758
I01
sg759
I00
sg760
g1081
sg182
g727
sg13
g761
sg36
(lp1103
g1
(g765
g3
NtRp1104
(dp1105
g768
(lp1106
g770
asg12
(tsg176
(lp1107
(lp1108
g773
aasg774
(lp1109
(lp1110
g777
aasg778
(lp1111
(lp1112
g1100
aasg781
(lp1113
I00
asg783
g784
sg785
(lp1114
g787
asbasg773
I00
sbag1
(g752
g3
NtRp1115
(dp1116
g755
(lp1117
F9.9999999999999995e-08
aF1000
asg12
(tsg32
g1081
sg757
I01
sg33
I00
sg758
I01
sg759
I00
sg760
g1081
sg182
g727
sg13
g761
sg36
(lp1118
g1
(g765
g3
NtRp1119
(dp1120
g768
(lp1121
g770
asg12
(tsg176
(lp1122
(lp1123
g773
aasg774
(lp1124
(lp1125
g777
aasg778
(lp1126
(lp1127
g1115
aasg781
(lp1128
I00
asg783
g784
sg785
(lp1129
g787
asbasg773
I00
sbag1
(g752
g3
NtRp1130
(dp1131
g755
(lp1132
F9.9999999999999995e-08
aF1000
asg12
(tsg32
g1081
sg757
I01
sg33
I00
sg758
I01
sg759
I00
sg760
g1081
sg182
g727
sg13
g761
sg36
(lp1133
g1
(g765
g3
NtRp1134
(dp1135
g768
(lp1136
g770
asg12
(tsg176
(lp1137
(lp1138
g773
aasg774
(lp1139
(lp1140
g777
aasg778
(lp1141
(lp1142
g1130
aasg781
(lp1143
I00
asg783
g784
sg785
(lp1144
g787
asbasg773
I00
sbag1
(g752
g3
NtRp1145
(dp1146
g755
(lp1147
F9.9999999999999995e-08
aF1000
asg12
(tsg32
g1081
sg757
I01
sg33
I00
sg758
I01
sg759
I00
sg760
g1081
sg182
g727
sg13
g761
sg36
(lp1148
g1
(g765
g3
NtRp1149
(dp1150
g768
(lp1151
g770
asg12
(tsg176
(lp1152
(lp1153
g773
aasg774
(lp1154
(lp1155
g777
aasg778
(lp1156
(lp1157
g1145
aasg781
(lp1158
I00
asg783
g784
sg785
(lp1159
g787
asbasg773
I00
sbag1
(g752
g3
NtRp1160
(dp1161
g755
(lp1162
F9.9999999999999995e-08
aF1000
asg12
(tsg32
g1081
sg757
I01
sg33
I00
sg758
I01
sg759
I00
sg760
g1081
sg182
g727
sg13
g761
sg36
(lp1163
g1
(g765
g3
NtRp1164
(dp1165
g768
(lp1166
g770
asg12
(tsg176
(lp1167
(lp1168
g773
aasg774
(lp1169
(lp1170
g777
aasg778
(lp1171
(lp1172
g1160
aasg781
(lp1173
I00
asg783
g784
sg785
(lp1174
g787
asbasg773
I00
sbag1
(g752
g3
NtRp1175
(dp1176
g755
(lp1177
F9.9999999999999995e-08
aF1000
asg12
(tsg32
g1081
sg757
I01
sg33
I00
sg758
I01
sg759
I00
sg760
g1081
sg182
g727
sg13
g761
sg36
(lp1178
g1
(g765
g3
NtRp1179
(dp1180
g768
(lp1181
g770
asg12
(tsg176
(lp1182
(lp1183
g773
aasg774
(lp1184
(lp1185
g777
aasg778
(lp1186
(lp1187
g1175
aasg781
(lp1188
I00
asg783
g784
sg785
(lp1189
g787
asbasg773
I00
sbasbag1
(g720
g3
NtRp1190
(dp1191
g8
g1
(g9
g3
NtRp1192
(dp1193
g12
(tsg13
g14
sg16
g720
sg17
g18
sbsg19
S'inverse-tetramerization of LacI4'
p1194
sg41
(lp1195
sg727
S'eta_L'
p1196
sg29
(lp1197
sg730
g731
sg36
(lp1198
sg52
(lp1199
sg734
g735
sg34
(lp1200
sg737
Nsg38
(lp1201
sg739
F1
sg740
(lp1202
(S'LacI4'
I1
tp1203
asg32
g4
sg33
I01
sg46
(lp1204
sg13
g743
sg744
(lp1205
(g122
I4
tp1206
asg749
F1.0000000000000001e-30
sg50
(lp1207
g1192
asg108
(lp1208
g1
(g752
g3
NtRp1209
(dp1210
g755
(lp1211
F9.9999999999999995e-08
aF1000
asg12
(tsg32
g1190
sg757
I01
sg33
I00
sg758
I01
sg759
I00
sg760
g1190
sg182
g727
sg13
g761
sg36
(lp1212
g1
(g765
g3
NtRp1213
(dp1214
g768
(lp1215
g770
asg12
(tsg176
(lp1216
(lp1217
g773
aasg774
(lp1218
(lp1219
g777
aasg778
(lp1220
(lp1221
g1209
aasg781
(lp1222
I00
asg783
g784
sg785
(lp1223
g787
asbasg773
I00
sbag1
(g752
g3
NtRp1224
(dp1225
g755
(lp1226
F9.9999999999999995e-08
aF1000
asg12
(tsg32
g1190
sg757
I01
sg33
I00
sg758
I01
sg759
I00
sg760
g1190
sg182
g727
sg13
g761
sg36
(lp1227
g1
(g765
g3
NtRp1228
(dp1229
g768
(lp1230
g770
asg12
(tsg176
(lp1231
(lp1232
g773
aasg774
(lp1233
(lp1234
g777
aasg778
(lp1235
(lp1236
g1224
aasg781
(lp1237
I00
asg783
g784
sg785
(lp1238
g787
asbasg773
I00
sbag1
(g752
g3
NtRp1239
(dp1240
g755
(lp1241
F9.9999999999999995e-08
aF1000
asg12
(tsg32
g1190
sg757
I01
sg33
I00
sg758
I01
sg759
I00
sg760
g1190
sg182
g727
sg13
g761
sg36
(lp1242
g1
(g765
g3
NtRp1243
(dp1244
g768
(lp1245
g770
asg12
(tsg176
(lp1246
(lp1247
g773
aasg774
(lp1248
(lp1249
g777
aasg778
(lp1250
(lp1251
g1239
aasg781
(lp1252
I00
asg783
g784
sg785
(lp1253
g787
asbasg773
I00
sbag1
(g752
g3
NtRp1254
(dp1255
g755
(lp1256
F9.9999999999999995e-08
aF1000
asg12
(tsg32
g1190
sg757
I01
sg33
I00
sg758
I01
sg759
I00
sg760
g1190
sg182
g727
sg13
g761
sg36
(lp1257
g1
(g765
g3
NtRp1258
(dp1259
g768
(lp1260
g770
asg12
(tsg176
(lp1261
(lp1262
g773
aasg774
(lp1263
(lp1264
g777
aasg778
(lp1265
(lp1266
g1254
aasg781
(lp1267
I00
asg783
g784
sg785
(lp1268
g787
asbasg773
I00
sbag1
(g752
g3
NtRp1269
(dp1270
g755
(lp1271
F9.9999999999999995e-08
aF1000
asg12
(tsg32
g1190
sg757
I01
sg33
I00
sg758
I01
sg759
I00
sg760
g1190
sg182
g727
sg13
g761
sg36
(lp1272
g1
(g765
g3
NtRp1273
(dp1274
g768
(lp1275
g770
asg12
(tsg176
(lp1276
(lp1277
g773
aasg774
(lp1278
(lp1279
g777
aasg778
(lp1280
(lp1281
g1269
aasg781
(lp1282
I00
asg783
g784
sg785
(lp1283
g787
asbasg773
I00
sbag1
(g752
g3
NtRp1284
(dp1285
g755
(lp1286
F9.9999999999999995e-08
aF1000
asg12
(tsg32
g1190
sg757
I01
sg33
I00
sg758
I01
sg759
I00
sg760
g1190
sg182
g727
sg13
g761
sg36
(lp1287
g1
(g765
g3
NtRp1288
(dp1289
g768
(lp1290
g770
asg12
(tsg176
(lp1291
(lp1292
g773
aasg774
(lp1293
(lp1294
g777
aasg778
(lp1295
(lp1296
g1284
aasg781
(lp1297
I00
asg783
g784
sg785
(lp1298
g787
asbasg773
I00
sbasbag1
(g720
g3
NtRp1299
(dp1300
g8
g1
(g9
g3
NtRp1301
(dp1302
g12
(tsg13
g14
sg16
g720
sg17
g18
sbsg19
S'production of CFP via AHL'
p1303
sg41
(lp1304
sg727
S'lambda_CA'
p1305
sg29
(lp1306
sg730
g731
sg36
(lp1307
sg52
(lp1308
sg734
g735
sg34
(lp1309
sg737
Nsg38
(lp1310
sg739
F1
sg740
(lp1311
sg32
g4
sg33
I01
sg46
(lp1312
sg13
g743
sg744
(lp1313
(g126
I1
tp1314
asg749
F1.0000000000000001e-30
sg50
(lp1315
g1301
asg108
(lp1316
g1
(g752
g3
NtRp1317
(dp1318
g755
(lp1319
F9.9999999999999995e-08
aF1000
asg12
(tsg32
g1299
sg757
I01
sg33
I00
sg758
I01
sg759
I00
sg760
g1299
sg182
g727
sg13
g761
sg36
(lp1320
g1
(g765
g3
NtRp1321
(dp1322
g768
(lp1323
g770
asg12
(tsg176
(lp1324
(lp1325
g773
aasg774
(lp1326
(lp1327
g777
aasg778
(lp1328
(lp1329
g1317
aasg781
(lp1330
I00
asg783
g784
sg785
(lp1331
g787
asbasg773
I00
sbag1
(g752
g3
NtRp1332
(dp1333
g755
(lp1334
F9.9999999999999995e-08
aF1000
asg12
(tsg32
g1299
sg757
I01
sg33
I00
sg758
I01
sg759
I00
sg760
g1299
sg182
g727
sg13
g761
sg36
(lp1335
g1
(g765
g3
NtRp1336
(dp1337
g768
(lp1338
g770
asg12
(tsg176
(lp1339
(lp1340
g773
aasg774
(lp1341
(lp1342
g777
aasg778
(lp1343
(lp1344
g1332
aasg781
(lp1345
I00
asg783
g784
sg785
(lp1346
g787
asbasg773
I00
sbag1
(g752
g3
NtRp1347
(dp1348
g755
(lp1349
F9.9999999999999995e-08
aF1000
asg12
(tsg32
g1299
sg757
I01
sg33
I00
sg758
I01
sg759
I00
sg760
g1299
sg182
g727
sg13
g761
sg36
(lp1350
g1
(g765
g3
NtRp1351
(dp1352
g768
(lp1353
g770
asg12
(tsg176
(lp1354
(lp1355
g773
aasg774
(lp1356
(lp1357
g777
aasg778
(lp1358
(lp1359
g1347
aasg781
(lp1360
I00
asg783
g784
sg785
(lp1361
g787
asbasg773
I00
sbag1
(g752
g3
NtRp1362
(dp1363
g755
(lp1364
F9.9999999999999995e-08
aF1000
asg12
(tsg32
g1299
sg757
I01
sg33
I00
sg758
I01
sg759
I00
sg760
g1299
sg182
g727
sg13
g761
sg36
(lp1365
g1
(g765
g3
NtRp1366
(dp1367
g768
(lp1368
g770
asg12
(tsg176
(lp1369
(lp1370
g773
aasg774
(lp1371
(lp1372
g777
aasg778
(lp1373
(lp1374
g1362
aasg781
(lp1375
I00
asg783
g784
sg785
(lp1376
g787
asbasg773
I00
sbag1
(g752
g3
NtRp1377
(dp1378
g755
(lp1379
F9.9999999999999995e-08
aF1000
asg12
(tsg32
g1299
sg757
I01
sg33
I00
sg758
I01
sg759
I00
sg760
g1299
sg182
g727
sg13
g761
sg36
(lp1380
g1
(g765
g3
NtRp1381
(dp1382
g768
(lp1383
g770
asg12
(tsg176
(lp1384
(lp1385
g773
aasg774
(lp1386
(lp1387
g777
aasg778
(lp1388
(lp1389
g1377
aasg781
(lp1390
I00
asg783
g784
sg785
(lp1391
g787
asbasg773
I00
sbag1
(g752
g3
NtRp1392
(dp1393
g755
(lp1394
F9.9999999999999995e-08
aF1000
asg12
(tsg32
g1299
sg757
I01
sg33
I00
sg758
I01
sg759
I00
sg760
g1299
sg182
g727
sg13
g761
sg36
(lp1395
g1
(g765
g3
NtRp1396
(dp1397
g768
(lp1398
g770
asg12
(tsg176
(lp1399
(lp1400
g773
aasg774
(lp1401
(lp1402
g777
aasg778
(lp1403
(lp1404
g1392
aasg781
(lp1405
I00
asg783
g784
sg785
(lp1406
g787
asbasg773
I00
sbasbag1
(g720
g3
NtRp1407
(dp1408
g8
g1
(g9
g3
NtRp1409
(dp1410
g12
(tsg13
g14
sg16
g720
sg17
g18
sbsg19
S'basal CFP production'
p1411
sg41
(lp1412
sg727
S'lambda_C'
p1413
sg29
(lp1414
sg730
g731
sg36
(lp1415
sg52
(lp1416
sg734
g735
sg34
(lp1417
sg737
Nsg38
(lp1418
sg739
F1
sg740
(lp1419
sg32
g4
sg33
I01
sg46
(lp1420
sg13
g743
sg744
(lp1421
(S'CFP'
I1
tp1422
asg749
F1.0000000000000001e-30
sg50
(lp1423
g1409
asg108
(lp1424
g1
(g752
g3
NtRp1425
(dp1426
g755
(lp1427
F9.9999999999999995e-08
aF1000
asg12
(tsg32
g1407
sg757
I01
sg33
I00
sg758
I01
sg759
I00
sg760
g1407
sg182
g727
sg13
g761
sg36
(lp1428
g1
(g765
g3
NtRp1429
(dp1430
g768
(lp1431
g770
asg12
(tsg176
(lp1432
(lp1433
g773
aasg774
(lp1434
(lp1435
g777
aasg778
(lp1436
(lp1437
g1425
aasg781
(lp1438
I00
asg783
g784
sg785
(lp1439
g787
asbasg773
I00
sbag1
(g752
g3
NtRp1440
(dp1441
g755
(lp1442
F9.9999999999999995e-08
aF1000
asg12
(tsg32
g1407
sg757
I01
sg33
I00
sg758
I01
sg759
I00
sg760
g1407
sg182
g727
sg13
g761
sg36
(lp1443
g1
(g765
g3
NtRp1444
(dp1445
g768
(lp1446
g770
asg12
(tsg176
(lp1447
(lp1448
g773
aasg774
(lp1449
(lp1450
g777
aasg778
(lp1451
(lp1452
g1440
aasg781
(lp1453
I00
asg783
g784
sg785
(lp1454
g787
asbasg773
I00
sbag1
(g752
g3
NtRp1455
(dp1456
g755
(lp1457
F9.9999999999999995e-08
aF1000
asg12
(tsg32
g1407
sg757
I01
sg33
I00
sg758
I01
sg759
I00
sg760
g1407
sg182
g727
sg13
g761
sg36
(lp1458
g1
(g765
g3
NtRp1459
(dp1460
g768
(lp1461
g770
asg12
(tsg176
(lp1462
(lp1463
g773
aasg774
(lp1464
(lp1465
g777
aasg778
(lp1466
(lp1467
g1455
aasg781
(lp1468
I00
asg783
g784
sg785
(lp1469
g787
asbasg773
I00
sbag1
(g752
g3
NtRp1470
(dp1471
g755
(lp1472
F9.9999999999999995e-08
aF1000
asg12
(tsg32
g1407
sg757
I01
sg33
I00
sg758
I01
sg759
I00
sg760
g1407
sg182
g727
sg13
g761
sg36
(lp1473
g1
(g765
g3
NtRp1474
(dp1475
g768
(lp1476
g770
asg12
(tsg176
(lp1477
(lp1478
g773
aasg774
(lp1479
(lp1480
g777
aasg778
(lp1481
(lp1482
g1470
aasg781
(lp1483
I00
asg783
g784
sg785
(lp1484
g787
asbasg773
I00
sbag1
(g752
g3
NtRp1485
(dp1486
g755
(lp1487
F9.9999999999999995e-08
aF1000
asg12
(tsg32
g1407
sg757
I01
sg33
I00
sg758
I01
sg759
I00
sg760
g1407
sg182
g727
sg13
g761
sg36
(lp1488
g1
(g765
g3
NtRp1489
(dp1490
g768
(lp1491
g770
asg12
(tsg176
(lp1492
(lp1493
g773
aasg774
(lp1494
(lp1495
g777
aasg778
(lp1496
(lp1497
g1485
aasg781
(lp1498
I00
asg783
g784
sg785
(lp1499
g787
asbasg773
I00
sbag1
(g752
g3
NtRp1500
(dp1501
g755
(lp1502
F9.9999999999999995e-08
aF1000
asg12
(tsg32
g1407
sg757
I01
sg33
I00
sg758
I01
sg759
I00
sg760
g1407
sg182
g727
sg13
g761
sg36
(lp1503
g1
(g765
g3
NtRp1504
(dp1505
g768
(lp1506
g770
asg12
(tsg176
(lp1507
(lp1508
g773
aasg774
(lp1509
(lp1510
g777
aasg778
(lp1511
(lp1512
g1500
aasg781
(lp1513
I00
asg783
g784
sg785
(lp1514
g787
asbasg773
I00
sbasbag1
(g720
g3
NtRp1515
(dp1516
g8
g1
(g9
g3
NtRp1517
(dp1518
g12
(tsg13
g14
sg16
g720
sg17
g18
sbsg19
S'degradation of GFP'
p1519
sg41
(lp1520
sg727
S'g_G'
p1521
sg29
(lp1522
sg730
g731
sg36
(lp1523
sg52
(lp1524
sg734
g735
sg34
(lp1525
sg737
Nsg38
(lp1526
sg739
F1
sg740
(lp1527
(S'GFP'
I1
tp1528
asg32
g4
sg33
I01
sg46
(lp1529
sg13
g743
sg744
(lp1530
sg749
F1.0000000000000001e-30
sg50
(lp1531
g1517
asg108
(lp1532
g1
(g752
g3
NtRp1533
(dp1534
g755
(lp1535
F9.9999999999999995e-08
aF1000
asg12
(tsg32
g1515
sg757
I01
sg33
I00
sg758
I01
sg759
I00
sg760
g1515
sg182
g727
sg13
g761
sg36
(lp1536
g1
(g765
g3
NtRp1537
(dp1538
g768
(lp1539
g770
asg12
(tsg176
(lp1540
(lp1541
g773
aasg774
(lp1542
(lp1543
g777
aasg778
(lp1544
(lp1545
g1533
aasg781
(lp1546
I00
asg783
g784
sg785
(lp1547
g787
asbasg773
I00
sbag1
(g752
g3
NtRp1548
(dp1549
g755
(lp1550
F9.9999999999999995e-08
aF1000
asg12
(tsg32
g1515
sg757
I01
sg33
I00
sg758
I01
sg759
I00
sg760
g1515
sg182
g727
sg13
g761
sg36
(lp1551
g1
(g765
g3
NtRp1552
(dp1553
g768
(lp1554
g770
asg12
(tsg176
(lp1555
(lp1556
g773
aasg774
(lp1557
(lp1558
g777
aasg778
(lp1559
(lp1560
g1548
aasg781
(lp1561
I00
asg783
g784
sg785
(lp1562
g787
asbasg773
I00
sbag1
(g752
g3
NtRp1563
(dp1564
g755
(lp1565
F9.9999999999999995e-08
aF1000
asg12
(tsg32
g1515
sg757
I01
sg33
I00
sg758
I01
sg759
I00
sg760
g1515
sg182
g727
sg13
g761
sg36
(lp1566
g1
(g765
g3
NtRp1567
(dp1568
g768
(lp1569
g770
asg12
(tsg176
(lp1570
(lp1571
g773
aasg774
(lp1572
(lp1573
g777
aasg778
(lp1574
(lp1575
g1563
aasg781
(lp1576
I00
asg783
g784
sg785
(lp1577
g787
asbasg773
I00
sbag1
(g752
g3
NtRp1578
(dp1579
g755
(lp1580
F9.9999999999999995e-08
aF1000
asg12
(tsg32
g1515
sg757
I01
sg33
I00
sg758
I01
sg759
I00
sg760
g1515
sg182
g727
sg13
g761
sg36
(lp1581
g1
(g765
g3
NtRp1582
(dp1583
g768
(lp1584
g770
asg12
(tsg176
(lp1585
(lp1586
g773
aasg774
(lp1587
(lp1588
g777
aasg778
(lp1589
(lp1590
g1578
aasg781
(lp1591
I00
asg783
g784
sg785
(lp1592
g787
asbasg773
I00
sbag1
(g752
g3
NtRp1593
(dp1594
g755
(lp1595
F9.9999999999999995e-08
aF1000
asg12
(tsg32
g1515
sg757
I01
sg33
I00
sg758
I01
sg759
I00
sg760
g1515
sg182
g727
sg13
g761
sg36
(lp1596
g1
(g765
g3
NtRp1597
(dp1598
g768
(lp1599
g770
asg12
(tsg176
(lp1600
(lp1601
g773
aasg774
(lp1602
(lp1603
g777
aasg778
(lp1604
(lp1605
g1593
aasg781
(lp1606
I00
asg783
g784
sg785
(lp1607
g787
asbasg773
I00
sbag1
(g752
g3
NtRp1608
(dp1609
g755
(lp1610
F9.9999999999999995e-08
aF1000
asg12
(tsg32
g1515
sg757
I01
sg33
I00
sg758
I01
sg759
I00
sg760
g1515
sg182
g727
sg13
g761
sg36
(lp1611
g1
(g765
g3
NtRp1612
(dp1613
g768
(lp1614
g770
asg12
(tsg176
(lp1615
(lp1616
g773
aasg774
(lp1617
(lp1618
g777
aasg778
(lp1619
(lp1620
g1608
aasg781
(lp1621
I00
asg783
g784
sg785
(lp1622
g787
asbasg773
I00
sbasbag1
(g720
g3
NtRp1623
(dp1624
g8
g1
(g9
g3
NtRp1625
(dp1626
g12
(tsg13
g14
sg16
g720
sg17
g18
sbsg19
S'degradation of CFP'
p1627
sg41
(lp1628
sg727
S'g_C'
p1629
sg29
(lp1630
sg730
g731
sg36
(lp1631
sg52
(lp1632
sg734
g735
sg34
(lp1633
sg737
Nsg38
(lp1634
sg739
F1
sg740
(lp1635
(S'CFP'
I1
tp1636
asg32
g4
sg33
I01
sg46
(lp1637
sg13
g743
sg744
(lp1638
sg749
F1.0000000000000001e-30
sg50
(lp1639
g1625
asg108
(lp1640
g1
(g752
g3
NtRp1641
(dp1642
g755
(lp1643
F9.9999999999999995e-08
aF1000
asg12
(tsg32
g1623
sg757
I01
sg33
I00
sg758
I01
sg759
I00
sg760
g1623
sg182
g727
sg13
g761
sg36
(lp1644
g1
(g765
g3
NtRp1645
(dp1646
g768
(lp1647
g770
asg12
(tsg176
(lp1648
(lp1649
g773
aasg774
(lp1650
(lp1651
g777
aasg778
(lp1652
(lp1653
g1641
aasg781
(lp1654
I00
asg783
g784
sg785
(lp1655
g787
asbasg773
I00
sbag1
(g752
g3
NtRp1656
(dp1657
g755
(lp1658
F9.9999999999999995e-08
aF1000
asg12
(tsg32
g1623
sg757
I01
sg33
I00
sg758
I01
sg759
I00
sg760
g1623
sg182
g727
sg13
g761
sg36
(lp1659
g1
(g765
g3
NtRp1660
(dp1661
g768
(lp1662
g770
asg12
(tsg176
(lp1663
(lp1664
g773
aasg774
(lp1665
(lp1666
g777
aasg778
(lp1667
(lp1668
g1656
aasg781
(lp1669
I00
asg783
g784
sg785
(lp1670
g787
asbasg773
I00
sbag1
(g752
g3
NtRp1671
(dp1672
g755
(lp1673
F9.9999999999999995e-08
aF1000
asg12
(tsg32
g1623
sg757
I01
sg33
I00
sg758
I01
sg759
I00
sg760
g1623
sg182
g727
sg13
g761
sg36
(lp1674
g1
(g765
g3
NtRp1675
(dp1676
g768
(lp1677
g770
asg12
(tsg176
(lp1678
(lp1679
g773
aasg774
(lp1680
(lp1681
g777
aasg778
(lp1682
(lp1683
g1671
aasg781
(lp1684
I00
asg783
g784
sg785
(lp1685
g787
asbasg773
I00
sbag1
(g752
g3
NtRp1686
(dp1687
g755
(lp1688
F9.9999999999999995e-08
aF1000
asg12
(tsg32
g1623
sg757
I01
sg33
I00
sg758
I01
sg759
I00
sg760
g1623
sg182
g727
sg13
g761
sg36
(lp1689
g1
(g765
g3
NtRp1690
(dp1691
g768
(lp1692
g770
asg12
(tsg176
(lp1693
(lp1694
g773
aasg774
(lp1695
(lp1696
g777
aasg778
(lp1697
(lp1698
g1686
aasg781
(lp1699
I00
asg783
g784
sg785
(lp1700
g787
asbasg773
I00
sbag1
(g752
g3
NtRp1701
(dp1702
g755
(lp1703
F9.9999999999999995e-08
aF1000
asg12
(tsg32
g1623
sg757
I01
sg33
I00
sg758
I01
sg759
I00
sg760
g1623
sg182
g727
sg13
g761
sg36
(lp1704
g1
(g765
g3
NtRp1705
(dp1706
g768
(lp1707
g770
asg12
(tsg176
(lp1708
(lp1709
g773
aasg774
(lp1710
(lp1711
g777
aasg778
(lp1712
(lp1713
g1701
aasg781
(lp1714
I00
asg783
g784
sg785
(lp1715
g787
asbasg773
I00
sbag1
(g752
g3
NtRp1716
(dp1717
g755
(lp1718
F9.9999999999999995e-08
aF1000
asg12
(tsg32
g1623
sg757
I01
sg33
I00
sg758
I01
sg759
I00
sg760
g1623
sg182
g727
sg13
g761
sg36
(lp1719
g1
(g765
g3
NtRp1720
(dp1721
g768
(lp1722
g770
asg12
(tsg176
(lp1723
(lp1724
g773
aasg774
(lp1725
(lp1726
g777
aasg778
(lp1727
(lp1728
g1716
aasg781
(lp1729
I00
asg783
g784
sg785
(lp1730
g787
asbasg773
I00
sbasbag1
(g720
g3
NtRp1731
(dp1732
g8
g1
(g9
g3
NtRp1733
(dp1734
g12
(tsg13
g14
sg16
g720
sg17
g18
sbsg19
S'degradation of LacI'
p1735
sg41
(lp1736
sg727
S'g_L'
p1737
sg29
(lp1738
sg730
g731
sg36
(lp1739
sg52
(lp1740
sg734
g735
sg34
(lp1741
sg737
Nsg38
(lp1742
sg739
F1
sg740
(lp1743
(S'LacI'
I1
tp1744
asg32
g4
sg33
I01
sg46
(lp1745
sg13
g743
sg744
(lp1746
sg749
F1.0000000000000001e-30
sg50
(lp1747
g1733
asg108
(lp1748
g1
(g752
g3
NtRp1749
(dp1750
g755
(lp1751
F9.9999999999999995e-08
aF1000
asg12
(tsg32
g1731
sg757
I01
sg33
I00
sg758
I01
sg759
I00
sg760
g1731
sg182
g727
sg13
g761
sg36
(lp1752
g1
(g765
g3
NtRp1753
(dp1754
g768
(lp1755
g770
asg12
(tsg176
(lp1756
(lp1757
g773
aasg774
(lp1758
(lp1759
g777
aasg778
(lp1760
(lp1761
g1749
aasg781
(lp1762
I00
asg783
g784
sg785
(lp1763
g787
asbasg773
I00
sbag1
(g752
g3
NtRp1764
(dp1765
g755
(lp1766
F9.9999999999999995e-08
aF1000
asg12
(tsg32
g1731
sg757
I01
sg33
I00
sg758
I01
sg759
I00
sg760
g1731
sg182
g727
sg13
g761
sg36
(lp1767
g1
(g765
g3
NtRp1768
(dp1769
g768
(lp1770
g770
asg12
(tsg176
(lp1771
(lp1772
g773
aasg774
(lp1773
(lp1774
g777
aasg778
(lp1775
(lp1776
g1764
aasg781
(lp1777
I00
asg783
g784
sg785
(lp1778
g787
asbasg773
I00
sbag1
(g752
g3
NtRp1779
(dp1780
g755
(lp1781
F9.9999999999999995e-08
aF1000
asg12
(tsg32
g1731
sg757
I01
sg33
I00
sg758
I01
sg759
I00
sg760
g1731
sg182
g727
sg13
g761
sg36
(lp1782
g1
(g765
g3
NtRp1783
(dp1784
g768
(lp1785
g770
asg12
(tsg176
(lp1786
(lp1787
g773
aasg774
(lp1788
(lp1789
g777
aasg778
(lp1790
(lp1791
g1779
aasg781
(lp1792
I00
asg783
g784
sg785
(lp1793
g787
asbasg773
I00
sbag1
(g752
g3
NtRp1794
(dp1795
g755
(lp1796
F9.9999999999999995e-08
aF1000
asg12
(tsg32
g1731
sg757
I01
sg33
I00
sg758
I01
sg759
I00
sg760
g1731
sg182
g727
sg13
g761
sg36
(lp1797
g1
(g765
g3
NtRp1798
(dp1799
g768
(lp1800
g770
asg12
(tsg176
(lp1801
(lp1802
g773
aasg774
(lp1803
(lp1804
g777
aasg778
(lp1805
(lp1806
g1794
aasg781
(lp1807
I00
asg783
g784
sg785
(lp1808
g787
asbasg773
I00
sbag1
(g752
g3
NtRp1809
(dp1810
g755
(lp1811
F9.9999999999999995e-08
aF1000
asg12
(tsg32
g1731
sg757
I01
sg33
I00
sg758
I01
sg759
I00
sg760
g1731
sg182
g727
sg13
g761
sg36
(lp1812
g1
(g765
g3
NtRp1813
(dp1814
g768
(lp1815
g770
asg12
(tsg176
(lp1816
(lp1817
g773
aasg774
(lp1818
(lp1819
g777
aasg778
(lp1820
(lp1821
g1809
aasg781
(lp1822
I00
asg783
g784
sg785
(lp1823
g787
asbasg773
I00
sbag1
(g752
g3
NtRp1824
(dp1825
g755
(lp1826
F9.9999999999999995e-08
aF1000
asg12
(tsg32
g1731
sg757
I01
sg33
I00
sg758
I01
sg759
I00
sg760
g1731
sg182
g727
sg13
g761
sg36
(lp1827
g1
(g765
g3
NtRp1828
(dp1829
g768
(lp1830
g770
asg12
(tsg176
(lp1831
(lp1832
g773
aasg774
(lp1833
(lp1834
g777
aasg778
(lp1835
(lp1836
g1824
aasg781
(lp1837
I00
asg783
g784
sg785
(lp1838
g787
asbasg773
I00
sbasbag1
(g720
g3
NtRp1839
(dp1840
g8
g1
(g9
g3
NtRp1841
(dp1842
g12
(tsg13
g14
sg16
g720
sg17
g18
sbsg19
S'degradation of LacI4'
p1843
sg41
(lp1844
sg727
S'g_L4'
p1845
sg29
(lp1846
sg730
g731
sg36
(lp1847
sg52
(lp1848
sg734
g735
sg34
(lp1849
sg737
Nsg38
(lp1850
sg739
F1
sg740
(lp1851
(S'LacI4'
I1
tp1852
asg32
g4
sg33
I01
sg46
(lp1853
sg13
g743
sg744
(lp1854
sg749
F1.0000000000000001e-30
sg50
(lp1855
g1841
asg108
(lp1856
g1
(g752
g3
NtRp1857
(dp1858
g755
(lp1859
F9.9999999999999995e-08
aF1000
asg12
(tsg32
g1839
sg757
I01
sg33
I00
sg758
I01
sg759
I00
sg760
g1839
sg182
g727
sg13
g761
sg36
(lp1860
g1
(g765
g3
NtRp1861
(dp1862
g768
(lp1863
g770
asg12
(tsg176
(lp1864
(lp1865
g773
aasg774
(lp1866
(lp1867
g777
aasg778
(lp1868
(lp1869
g1857
aasg781
(lp1870
I00
asg783
g784
sg785
(lp1871
g787
asbasg773
I00
sbag1
(g752
g3
NtRp1872
(dp1873
g755
(lp1874
F9.9999999999999995e-08
aF1000
asg12
(tsg32
g1839
sg757
I01
sg33
I00
sg758
I01
sg759
I00
sg760
g1839
sg182
g727
sg13
g761
sg36
(lp1875
g1
(g765
g3
NtRp1876
(dp1877
g768
(lp1878
g770
asg12
(tsg176
(lp1879
(lp1880
g773
aasg774
(lp1881
(lp1882
g777
aasg778
(lp1883
(lp1884
g1872
aasg781
(lp1885
I00
asg783
g784
sg785
(lp1886
g787
asbasg773
I00
sbag1
(g752
g3
NtRp1887
(dp1888
g755
(lp1889
F9.9999999999999995e-08
aF1000
asg12
(tsg32
g1839
sg757
I01
sg33
I00
sg758
I01
sg759
I00
sg760
g1839
sg182
g727
sg13
g761
sg36
(lp1890
g1
(g765
g3
NtRp1891
(dp1892
g768
(lp1893
g770
asg12
(tsg176
(lp1894
(lp1895
g773
aasg774
(lp1896
(lp1897
g777
aasg778
(lp1898
(lp1899
g1887
aasg781
(lp1900
I00
asg783
g784
sg785
(lp1901
g787
asbasg773
I00
sbag1
(g752
g3
NtRp1902
(dp1903
g755
(lp1904
F9.9999999999999995e-08
aF1000
asg12
(tsg32
g1839
sg757
I01
sg33
I00
sg758
I01
sg759
I00
sg760
g1839
sg182
g727
sg13
g761
sg36
(lp1905
g1
(g765
g3
NtRp1906
(dp1907
g768
(lp1908
g770
asg12
(tsg176
(lp1909
(lp1910
g773
aasg774
(lp1911
(lp1912
g777
aasg778
(lp1913
(lp1914
g1902
aasg781
(lp1915
I00
asg783
g784
sg785
(lp1916
g787
asbasg773
I00
sbag1
(g752
g3
NtRp1917
(dp1918
g755
(lp1919
F9.9999999999999995e-08
aF1000
asg12
(tsg32
g1839
sg757
I01
sg33
I00
sg758
I01
sg759
I00
sg760
g1839
sg182
g727
sg13
g761
sg36
(lp1920
g1
(g765
g3
NtRp1921
(dp1922
g768
(lp1923
g770
asg12
(tsg176
(lp1924
(lp1925
g773
aasg774
(lp1926
(lp1927
g777
aasg778
(lp1928
(lp1929
g1917
aasg781
(lp1930
I00
asg783
g784
sg785
(lp1931
g787
asbasg773
I00
sbag1
(g752
g3
NtRp1932
(dp1933
g755
(lp1934
F9.9999999999999995e-08
aF1000
asg12
(tsg32
g1839
sg757
I01
sg33
I00
sg758
I01
sg759
I00
sg760
g1839
sg182
g727
sg13
g761
sg36
(lp1935
g1
(g765
g3
NtRp1936
(dp1937
g768
(lp1938
g770
asg12
(tsg176
(lp1939
(lp1940
g773
aasg774
(lp1941
(lp1942
g777
aasg778
(lp1943
(lp1944
g1932
aasg781
(lp1945
I00
asg783
g784
sg785
(lp1946
g787
asbasg773
I00
sbasbag1
(g720
g3
NtRp1947
(dp1948
g8
g1
(g9
g3
NtRp1949
(dp1950
g12
(tsg13
g14
sg16
g720
sg17
g18
sbsg19
S'degradation of AraC'
p1951
sg41
(lp1952
sg727
S'g_A'
p1953
sg29
(lp1954
sg730
g731
sg36
(lp1955
sg52
(lp1956
sg734
g735
sg34
(lp1957
sg737
Nsg38
(lp1958
sg739
F1
sg740
(lp1959
(S'AraC'
I1
tp1960
asg32
g4
sg33
I01
sg46
(lp1961
sg13
g743
sg744
(lp1962
sg749
F1.0000000000000001e-30
sg50
(lp1963
g1949
asg108
(lp1964
g1
(g752
g3
NtRp1965
(dp1966
g755
(lp1967
F9.9999999999999995e-08
aF1000
asg12
(tsg32
g1947
sg757
I01
sg33
I00
sg758
I01
sg759
I00
sg760
g1947
sg182
g727
sg13
g761
sg36
(lp1968
g1
(g765
g3
NtRp1969
(dp1970
g768
(lp1971
g770
asg12
(tsg176
(lp1972
(lp1973
g773
aasg774
(lp1974
(lp1975
g777
aasg778
(lp1976
(lp1977
g1965
aasg781
(lp1978
I00
asg783
g784
sg785
(lp1979
g787
asbasg773
I00
sbag1
(g752
g3
NtRp1980
(dp1981
g755
(lp1982
F9.9999999999999995e-08
aF1000
asg12
(tsg32
g1947
sg757
I01
sg33
I00
sg758
I01
sg759
I00
sg760
g1947
sg182
g727
sg13
g761
sg36
(lp1983
g1
(g765
g3
NtRp1984
(dp1985
g768
(lp1986
g770
asg12
(tsg176
(lp1987
(lp1988
g773
aasg774
(lp1989
(lp1990
g777
aasg778
(lp1991
(lp1992
g1980
aasg781
(lp1993
I00
asg783
g784
sg785
(lp1994
g787
asbasg773
I00
sbag1
(g752
g3
NtRp1995
(dp1996
g755
(lp1997
F9.9999999999999995e-08
aF1000
asg12
(tsg32
g1947
sg757
I01
sg33
I00
sg758
I01
sg759
I00
sg760
g1947
sg182
g727
sg13
g761
sg36
(lp1998
g1
(g765
g3
NtRp1999
(dp2000
g768
(lp2001
g770
asg12
(tsg176
(lp2002
(lp2003
g773
aasg774
(lp2004
(lp2005
g777
aasg778
(lp2006
(lp2007
g1995
aasg781
(lp2008
I00
asg783
g784
sg785
(lp2009
g787
asbasg773
I00
sbag1
(g752
g3
NtRp2010
(dp2011
g755
(lp2012
F9.9999999999999995e-08
aF1000
asg12
(tsg32
g1947
sg757
I01
sg33
I00
sg758
I01
sg759
I00
sg760
g1947
sg182
g727
sg13
g761
sg36
(lp2013
g1
(g765
g3
NtRp2014
(dp2015
g768
(lp2016
g770
asg12
(tsg176
(lp2017
(lp2018
g773
aasg774
(lp2019
(lp2020
g777
aasg778
(lp2021
(lp2022
g2010
aasg781
(lp2023
I00
asg783
g784
sg785
(lp2024
g787
asbasg773
I00
sbag1
(g752
g3
NtRp2025
(dp2026
g755
(lp2027
F9.9999999999999995e-08
aF1000
asg12
(tsg32
g1947
sg757
I01
sg33
I00
sg758
I01
sg759
I00
sg760
g1947
sg182
g727
sg13
g761
sg36
(lp2028
g1
(g765
g3
NtRp2029
(dp2030
g768
(lp2031
g770
asg12
(tsg176
(lp2032
(lp2033
g773
aasg774
(lp2034
(lp2035
g777
aasg778
(lp2036
(lp2037
g2025
aasg781
(lp2038
I00
asg783
g784
sg785
(lp2039
g787
asbasg773
I00
sbag1
(g752
g3
NtRp2040
(dp2041
g755
(lp2042
F9.9999999999999995e-08
aF1000
asg12
(tsg32
g1947
sg757
I01
sg33
I00
sg758
I01
sg759
I00
sg760
g1947
sg182
g727
sg13
g761
sg36
(lp2043
g1
(g765
g3
NtRp2044
(dp2045
g768
(lp2046
g770
asg12
(tsg176
(lp2047
(lp2048
g773
aasg774
(lp2049
(lp2050
g777
aasg778
(lp2051
(lp2052
g2040
aasg781
(lp2053
I00
asg783
g784
sg785
(lp2054
g787
asbasg773
I00
sbasbag1
(g720
g3
NtRp2055
(dp2056
g8
g1
(g9
g3
NtRp2057
(dp2058
g12
(tsg13
g14
sg16
g720
sg17
g18
sbsg19
S'degradation of AraC2'
p2059
sg41
(lp2060
sg727
S'g_A2'
p2061
sg29
(lp2062
sg730
g731
sg36
(lp2063
sg52
(lp2064
sg734
g735
sg34
(lp2065
sg737
Nsg38
(lp2066
sg739
F1
sg740
(lp2067
(S'AraC2'
I1
tp2068
asg32
g4
sg33
I01
sg46
(lp2069
sg13
g743
sg744
(lp2070
sg749
F1.0000000000000001e-30
sg50
(lp2071
g2057
asg108
(lp2072
g1
(g752
g3
NtRp2073
(dp2074
g755
(lp2075
F9.9999999999999995e-08
aF1000
asg12
(tsg32
g2055
sg757
I01
sg33
I00
sg758
I01
sg759
I00
sg760
g2055
sg182
g727
sg13
g761
sg36
(lp2076
g1
(g765
g3
NtRp2077
(dp2078
g768
(lp2079
g770
asg12
(tsg176
(lp2080
(lp2081
g773
aasg774
(lp2082
(lp2083
g777
aasg778
(lp2084
(lp2085
g2073
aasg781
(lp2086
I00
asg783
g784
sg785
(lp2087
g787
asbasg773
I00
sbag1
(g752
g3
NtRp2088
(dp2089
g755
(lp2090
F9.9999999999999995e-08
aF1000
asg12
(tsg32
g2055
sg757
I01
sg33
I00
sg758
I01
sg759
I00
sg760
g2055
sg182
g727
sg13
g761
sg36
(lp2091
g1
(g765
g3
NtRp2092
(dp2093
g768
(lp2094
g770
asg12
(tsg176
(lp2095
(lp2096
g773
aasg774
(lp2097
(lp2098
g777
aasg778
(lp2099
(lp2100
g2088
aasg781
(lp2101
I00
asg783
g784
sg785
(lp2102
g787
asbasg773
I00
sbag1
(g752
g3
NtRp2103
(dp2104
g755
(lp2105
F9.9999999999999995e-08
aF1000
asg12
(tsg32
g2055
sg757
I01
sg33
I00
sg758
I01
sg759
I00
sg760
g2055
sg182
g727
sg13
g761
sg36
(lp2106
g1
(g765
g3
NtRp2107
(dp2108
g768
(lp2109
g770
asg12
(tsg176
(lp2110
(lp2111
g773
aasg774
(lp2112
(lp2113
g777
aasg778
(lp2114
(lp2115
g2103
aasg781
(lp2116
I00
asg783
g784
sg785
(lp2117
g787
asbasg773
I00
sbag1
(g752
g3
NtRp2118
(dp2119
g755
(lp2120
F9.9999999999999995e-08
aF1000
asg12
(tsg32
g2055
sg757
I01
sg33
I00
sg758
I01
sg759
I00
sg760
g2055
sg182
g727
sg13
g761
sg36
(lp2121
g1
(g765
g3
NtRp2122
(dp2123
g768
(lp2124
g770
asg12
(tsg176
(lp2125
(lp2126
g773
aasg774
(lp2127
(lp2128
g777
aasg778
(lp2129
(lp2130
g2118
aasg781
(lp2131
I00
asg783
g784
sg785
(lp2132
g787
asbasg773
I00
sbag1
(g752
g3
NtRp2133
(dp2134
g755
(lp2135
F9.9999999999999995e-08
aF1000
asg12
(tsg32
g2055
sg757
I01
sg33
I00
sg758
I01
sg759
I00
sg760
g2055
sg182
g727
sg13
g761
sg36
(lp2136
g1
(g765
g3
NtRp2137
(dp2138
g768
(lp2139
g770
asg12
(tsg176
(lp2140
(lp2141
g773
aasg774
(lp2142
(lp2143
g777
aasg778
(lp2144
(lp2145
g2133
aasg781
(lp2146
I00
asg783
g784
sg785
(lp2147
g787
asbasg773
I00
sbag1
(g752
g3
NtRp2148
(dp2149
g755
(lp2150
F9.9999999999999995e-08
aF1000
asg12
(tsg32
g2055
sg757
I01
sg33
I00
sg758
I01
sg759
I00
sg760
g2055
sg182
g727
sg13
g761
sg36
(lp2151
g1
(g765
g3
NtRp2152
(dp2153
g768
(lp2154
g770
asg12
(tsg176
(lp2155
(lp2156
g773
aasg774
(lp2157
(lp2158
g777
aasg778
(lp2159
(lp2160
g2148
aasg781
(lp2161
I00
asg783
g784
sg785
(lp2162
g787
asbasg773
I00
sbasbag1
(g720
g3
NtRp2163
(dp2164
g8
g1
(g9
g3
NtRp2165
(dp2166
g12
(tsg13
g14
sg16
g720
sg17
g18
sbsg19
S'diffusion/division of GFP'
p2167
sg41
(lp2168
sg727
S'gamma_G'
p2169
sg29
(lp2170
sg730
g731
sg36
(lp2171
sg52
(lp2172
sg734
g735
sg34
(lp2173
sg737
Nsg38
(lp2174
sg739
F1
sg740
(lp2175
(S'GFP'
I1
tp2176
asg32
g4
sg33
I01
sg46
(lp2177
sg13
g743
sg744
(lp2178
sg749
F1.0000000000000001e-30
sg50
(lp2179
g2165
asg108
(lp2180
g1
(g752
g3
NtRp2181
(dp2182
g755
(lp2183
F9.9999999999999995e-08
aF1000
asg12
(tsg32
g2163
sg757
I01
sg33
I00
sg758
I01
sg759
I00
sg760
g2163
sg182
g727
sg13
g761
sg36
(lp2184
g1
(g765
g3
NtRp2185
(dp2186
g768
(lp2187
g770
asg12
(tsg176
(lp2188
(lp2189
g773
aasg774
(lp2190
(lp2191
g777
aasg778
(lp2192
(lp2193
g2181
aasg781
(lp2194
I00
asg783
g784
sg785
(lp2195
g787
asbasg773
I00
sbag1
(g752
g3
NtRp2196
(dp2197
g755
(lp2198
F9.9999999999999995e-08
aF1000
asg12
(tsg32
g2163
sg757
I01
sg33
I00
sg758
I01
sg759
I00
sg760
g2163
sg182
g727
sg13
g761
sg36
(lp2199
g1
(g765
g3
NtRp2200
(dp2201
g768
(lp2202
g770
asg12
(tsg176
(lp2203
(lp2204
g773
aasg774
(lp2205
(lp2206
g777
aasg778
(lp2207
(lp2208
g2196
aasg781
(lp2209
I00
asg783
g784
sg785
(lp2210
g787
asbasg773
I00
sbag1
(g752
g3
NtRp2211
(dp2212
g755
(lp2213
F9.9999999999999995e-08
aF1000
asg12
(tsg32
g2163
sg757
I01
sg33
I00
sg758
I01
sg759
I00
sg760
g2163
sg182
g727
sg13
g761
sg36
(lp2214
g1
(g765
g3
NtRp2215
(dp2216
g768
(lp2217
g770
asg12
(tsg176
(lp2218
(lp2219
g773
aasg774
(lp2220
(lp2221
g777
aasg778
(lp2222
(lp2223
g2211
aasg781
(lp2224
I00
asg783
g784
sg785
(lp2225
g787
asbasg773
I00
sbag1
(g752
g3
NtRp2226
(dp2227
g755
(lp2228
F9.9999999999999995e-08
aF1000
asg12
(tsg32
g2163
sg757
I01
sg33
I00
sg758
I01
sg759
I00
sg760
g2163
sg182
g727
sg13
g761
sg36
(lp2229
g1
(g765
g3
NtRp2230
(dp2231
g768
(lp2232
g770
asg12
(tsg176
(lp2233
(lp2234
g773
aasg774
(lp2235
(lp2236
g777
aasg778
(lp2237
(lp2238
g2226
aasg781
(lp2239
I00
asg783
g784
sg785
(lp2240
g787
asbasg773
I00
sbag1
(g752
g3
NtRp2241
(dp2242
g755
(lp2243
F9.9999999999999995e-08
aF1000
asg12
(tsg32
g2163
sg757
I01
sg33
I00
sg758
I01
sg759
I00
sg760
g2163
sg182
g727
sg13
g761
sg36
(lp2244
g1
(g765
g3
NtRp2245
(dp2246
g768
(lp2247
g770
asg12
(tsg176
(lp2248
(lp2249
g773
aasg774
(lp2250
(lp2251
g777
aasg778
(lp2252
(lp2253
g2241
aasg781
(lp2254
I00
asg783
g784
sg785
(lp2255
g787
asbasg773
I00
sbag1
(g752
g3
NtRp2256
(dp2257
g755
(lp2258
F9.9999999999999995e-08
aF1000
asg12
(tsg32
g2163
sg757
I01
sg33
I00
sg758
I01
sg759
I00
sg760
g2163
sg182
g727
sg13
g761
sg36
(lp2259
g1
(g765
g3
NtRp2260
(dp2261
g768
(lp2262
g770
asg12
(tsg176
(lp2263
(lp2264
g773
aasg774
(lp2265
(lp2266
g777
aasg778
(lp2267
(lp2268
g2256
aasg781
(lp2269
I00
asg783
g784
sg785
(lp2270
g787
asbasg773
I00
sbasbag1
(g720
g3
NtRp2271
(dp2272
g8
g1
(g9
g3
NtRp2273
(dp2274
g12
(tsg13
g14
sg16
g720
sg17
g18
sbsg19
S'diffusion/division of CFP'
p2275
sg41
(lp2276
sg727
S'gamma_C'
p2277
sg29
(lp2278
sg730
g731
sg36
(lp2279
sg52
(lp2280
sg734
g735
sg34
(lp2281
sg737
Nsg38
(lp2282
sg739
F1
sg740
(lp2283
(S'CFP'
I1
tp2284
asg32
g4
sg33
I01
sg46
(lp2285
sg13
g743
sg744
(lp2286
sg749
F1.0000000000000001e-30
sg50
(lp2287
g2273
asg108
(lp2288
g1
(g752
g3
NtRp2289
(dp2290
g755
(lp2291
F9.9999999999999995e-08
aF1000
asg12
(tsg32
g2271
sg757
I01
sg33
I00
sg758
I01
sg759
I00
sg760
g2271
sg182
g727
sg13
g761
sg36
(lp2292
g1
(g765
g3
NtRp2293
(dp2294
g768
(lp2295
g770
asg12
(tsg176
(lp2296
(lp2297
g773
aasg774
(lp2298
(lp2299
g777
aasg778
(lp2300
(lp2301
g2289
aasg781
(lp2302
I00
asg783
g784
sg785
(lp2303
g787
asbasg773
I00
sbag1
(g752
g3
NtRp2304
(dp2305
g755
(lp2306
F9.9999999999999995e-08
aF1000
asg12
(tsg32
g2271
sg757
I01
sg33
I00
sg758
I01
sg759
I00
sg760
g2271
sg182
g727
sg13
g761
sg36
(lp2307
g1
(g765
g3
NtRp2308
(dp2309
g768
(lp2310
g770
asg12
(tsg176
(lp2311
(lp2312
g773
aasg774
(lp2313
(lp2314
g777
aasg778
(lp2315
(lp2316
g2304
aasg781
(lp2317
I00
asg783
g784
sg785
(lp2318
g787
asbasg773
I00
sbag1
(g752
g3
NtRp2319
(dp2320
g755
(lp2321
F9.9999999999999995e-08
aF1000
asg12
(tsg32
g2271
sg757
I01
sg33
I00
sg758
I01
sg759
I00
sg760
g2271
sg182
g727
sg13
g761
sg36
(lp2322
g1
(g765
g3
NtRp2323
(dp2324
g768
(lp2325
g770
asg12
(tsg176
(lp2326
(lp2327
g773
aasg774
(lp2328
(lp2329
g777
aasg778
(lp2330
(lp2331
g2319
aasg781
(lp2332
I00
asg783
g784
sg785
(lp2333
g787
asbasg773
I00
sbag1
(g752
g3
NtRp2334
(dp2335
g755
(lp2336
F9.9999999999999995e-08
aF1000
asg12
(tsg32
g2271
sg757
I01
sg33
I00
sg758
I01
sg759
I00
sg760
g2271
sg182
g727
sg13
g761
sg36
(lp2337
g1
(g765
g3
NtRp2338
(dp2339
g768
(lp2340
g770
asg12
(tsg176
(lp2341
(lp2342
g773
aasg774
(lp2343
(lp2344
g777
aasg778
(lp2345
(lp2346
g2334
aasg781
(lp2347
I00
asg783
g784
sg785
(lp2348
g787
asbasg773
I00
sbag1
(g752
g3
NtRp2349
(dp2350
g755
(lp2351
F9.9999999999999995e-08
aF1000
asg12
(tsg32
g2271
sg757
I01
sg33
I00
sg758
I01
sg759
I00
sg760
g2271
sg182
g727
sg13
g761
sg36
(lp2352
g1
(g765
g3
NtRp2353
(dp2354
g768
(lp2355
g770
asg12
(tsg176
(lp2356
(lp2357
g773
aasg774
(lp2358
(lp2359
g777
aasg778
(lp2360
(lp2361
g2349
aasg781
(lp2362
I00
asg783
g784
sg785
(lp2363
g787
asbasg773
I00
sbag1
(g752
g3
NtRp2364
(dp2365
g755
(lp2366
F9.9999999999999995e-08
aF1000
asg12
(tsg32
g2271
sg757
I01
sg33
I00
sg758
I01
sg759
I00
sg760
g2271
sg182
g727
sg13
g761
sg36
(lp2367
g1
(g765
g3
NtRp2368
(dp2369
g768
(lp2370
g770
asg12
(tsg176
(lp2371
(lp2372
g773
aasg774
(lp2373
(lp2374
g777
aasg778
(lp2375
(lp2376
g2364
aasg781
(lp2377
I00
asg783
g784
sg785
(lp2378
g787
asbasg773
I00
sbasbag1
(g720
g3
NtRp2379
(dp2380
g8
g1
(g9
g3
NtRp2381
(dp2382
g12
(tsg13
g14
sg16
g720
sg17
g18
sbsg19
S'diffusion/division of LacI'
p2383
sg41
(lp2384
sg727
S'gamma_L'
p2385
sg29
(lp2386
sg730
g731
sg36
(lp2387
sg52
(lp2388
sg734
g735
sg34
(lp2389
sg737
Nsg38
(lp2390
sg739
F1
sg740
(lp2391
(S'LacI'
I1
tp2392
asg32
g4
sg33
I01
sg46
(lp2393
sg13
g743
sg744
(lp2394
sg749
F1.0000000000000001e-30
sg50
(lp2395
g2381
asg108
(lp2396
g1
(g752
g3
NtRp2397
(dp2398
g755
(lp2399
F9.9999999999999995e-08
aF1000
asg12
(tsg32
g2379
sg757
I01
sg33
I00
sg758
I01
sg759
I00
sg760
g2379
sg182
g727
sg13
g761
sg36
(lp2400
g1
(g765
g3
NtRp2401
(dp2402
g768
(lp2403
g770
asg12
(tsg176
(lp2404
(lp2405
g773
aasg774
(lp2406
(lp2407
g777
aasg778
(lp2408
(lp2409
g2397
aasg781
(lp2410
I00
asg783
g784
sg785
(lp2411
g787
asbasg773
I00
sbag1
(g752
g3
NtRp2412
(dp2413
g755
(lp2414
F9.9999999999999995e-08
aF1000
asg12
(tsg32
g2379
sg757
I01
sg33
I00
sg758
I01
sg759
I00
sg760
g2379
sg182
g727
sg13
g761
sg36
(lp2415
g1
(g765
g3
NtRp2416
(dp2417
g768
(lp2418
g770
asg12
(tsg176
(lp2419
(lp2420
g773
aasg774
(lp2421
(lp2422
g777
aasg778
(lp2423
(lp2424
g2412
aasg781
(lp2425
I00
asg783
g784
sg785
(lp2426
g787
asbasg773
I00
sbag1
(g752
g3
NtRp2427
(dp2428
g755
(lp2429
F9.9999999999999995e-08
aF1000
asg12
(tsg32
g2379
sg757
I01
sg33
I00
sg758
I01
sg759
I00
sg760
g2379
sg182
g727
sg13
g761
sg36
(lp2430
g1
(g765
g3
NtRp2431
(dp2432
g768
(lp2433
g770
asg12
(tsg176
(lp2434
(lp2435
g773
aasg774
(lp2436
(lp2437
g777
aasg778
(lp2438
(lp2439
g2427
aasg781
(lp2440
I00
asg783
g784
sg785
(lp2441
g787
asbasg773
I00
sbag1
(g752
g3
NtRp2442
(dp2443
g755
(lp2444
F9.9999999999999995e-08
aF1000
asg12
(tsg32
g2379
sg757
I01
sg33
I00
sg758
I01
sg759
I00
sg760
g2379
sg182
g727
sg13
g761
sg36
(lp2445
g1
(g765
g3
NtRp2446
(dp2447
g768
(lp2448
g770
asg12
(tsg176
(lp2449
(lp2450
g773
aasg774
(lp2451
(lp2452
g777
aasg778
(lp2453
(lp2454
g2442
aasg781
(lp2455
I00
asg783
g784
sg785
(lp2456
g787
asbasg773
I00
sbag1
(g752
g3
NtRp2457
(dp2458
g755
(lp2459
F9.9999999999999995e-08
aF1000
asg12
(tsg32
g2379
sg757
I01
sg33
I00
sg758
I01
sg759
I00
sg760
g2379
sg182
g727
sg13
g761
sg36
(lp2460
g1
(g765
g3
NtRp2461
(dp2462
g768
(lp2463
g770
asg12
(tsg176
(lp2464
(lp2465
g773
aasg774
(lp2466
(lp2467
g777
aasg778
(lp2468
(lp2469
g2457
aasg781
(lp2470
I00
asg783
g784
sg785
(lp2471
g787
asbasg773
I00
sbag1
(g752
g3
NtRp2472
(dp2473
g755
(lp2474
F9.9999999999999995e-08
aF1000
asg12
(tsg32
g2379
sg757
I01
sg33
I00
sg758
I01
sg759
I00
sg760
g2379
sg182
g727
sg13
g761
sg36
(lp2475
g1
(g765
g3
NtRp2476
(dp2477
g768
(lp2478
g770
asg12
(tsg176
(lp2479
(lp2480
g773
aasg774
(lp2481
(lp2482
g777
aasg778
(lp2483
(lp2484
g2472
aasg781
(lp2485
I00
asg783
g784
sg785
(lp2486
g787
asbasg773
I00
sbasbag1
(g720
g3
NtRp2487
(dp2488
g8
g1
(g9
g3
NtRp2489
(dp2490
g12
(tsg13
g14
sg16
g720
sg17
g18
sbsg19
S'diffusion/division of LacI4'
p2491
sg41
(lp2492
sg727
S'gamma_L4'
p2493
sg29
(lp2494
sg730
g731
sg36
(lp2495
sg52
(lp2496
sg734
g735
sg34
(lp2497
sg737
Nsg38
(lp2498
sg739
F1
sg740
(lp2499
(S'LacI4'
I1
tp2500
asg32
g4
sg33
I01
sg46
(lp2501
sg13
g743
sg744
(lp2502
sg749
F1.0000000000000001e-30
sg50
(lp2503
g2489
asg108
(lp2504
g1
(g752
g3
NtRp2505
(dp2506
g755
(lp2507
F9.9999999999999995e-08
aF1000
asg12
(tsg32
g2487
sg757
I01
sg33
I00
sg758
I01
sg759
I00
sg760
g2487
sg182
g727
sg13
g761
sg36
(lp2508
g1
(g765
g3
NtRp2509
(dp2510
g768
(lp2511
g770
asg12
(tsg176
(lp2512
(lp2513
g773
aasg774
(lp2514
(lp2515
g777
aasg778
(lp2516
(lp2517
g2505
aasg781
(lp2518
I00
asg783
g784
sg785
(lp2519
g787
asbasg773
I00
sbag1
(g752
g3
NtRp2520
(dp2521
g755
(lp2522
F9.9999999999999995e-08
aF1000
asg12
(tsg32
g2487
sg757
I01
sg33
I00
sg758
I01
sg759
I00
sg760
g2487
sg182
g727
sg13
g761
sg36
(lp2523
g1
(g765
g3
NtRp2524
(dp2525
g768
(lp2526
g770
asg12
(tsg176
(lp2527
(lp2528
g773
aasg774
(lp2529
(lp2530
g777
aasg778
(lp2531
(lp2532
g2520
aasg781
(lp2533
I00
asg783
g784
sg785
(lp2534
g787
asbasg773
I00
sbag1
(g752
g3
NtRp2535
(dp2536
g755
(lp2537
F9.9999999999999995e-08
aF1000
asg12
(tsg32
g2487
sg757
I01
sg33
I00
sg758
I01
sg759
I00
sg760
g2487
sg182
g727
sg13
g761
sg36
(lp2538
g1
(g765
g3
NtRp2539
(dp2540
g768
(lp2541
g770
asg12
(tsg176
(lp2542
(lp2543
g773
aasg774
(lp2544
(lp2545
g777
aasg778
(lp2546
(lp2547
g2535
aasg781
(lp2548
I00
asg783
g784
sg785
(lp2549
g787
asbasg773
I00
sbag1
(g752
g3
NtRp2550
(dp2551
g755
(lp2552
F9.9999999999999995e-08
aF1000
asg12
(tsg32
g2487
sg757
I01
sg33
I00
sg758
I01
sg759
I00
sg760
g2487
sg182
g727
sg13
g761
sg36
(lp2553
g1
(g765
g3
NtRp2554
(dp2555
g768
(lp2556
g770
asg12
(tsg176
(lp2557
(lp2558
g773
aasg774
(lp2559
(lp2560
g777
aasg778
(lp2561
(lp2562
g2550
aasg781
(lp2563
I00
asg783
g784
sg785
(lp2564
g787
asbasg773
I00
sbag1
(g752
g3
NtRp2565
(dp2566
g755
(lp2567
F9.9999999999999995e-08
aF1000
asg12
(tsg32
g2487
sg757
I01
sg33
I00
sg758
I01
sg759
I00
sg760
g2487
sg182
g727
sg13
g761
sg36
(lp2568
g1
(g765
g3
NtRp2569
(dp2570
g768
(lp2571
g770
asg12
(tsg176
(lp2572
(lp2573
g773
aasg774
(lp2574
(lp2575
g777
aasg778
(lp2576
(lp2577
g2565
aasg781
(lp2578
I00
asg783
g784
sg785
(lp2579
g787
asbasg773
I00
sbag1
(g752
g3
NtRp2580
(dp2581
g755
(lp2582
F9.9999999999999995e-08
aF1000
asg12
(tsg32
g2487
sg757
I01
sg33
I00
sg758
I01
sg759
I00
sg760
g2487
sg182
g727
sg13
g761
sg36
(lp2583
g1
(g765
g3
NtRp2584
(dp2585
g768
(lp2586
g770
asg12
(tsg176
(lp2587
(lp2588
g773
aasg774
(lp2589
(lp2590
g777
aasg778
(lp2591
(lp2592
g2580
aasg781
(lp2593
I00
asg783
g784
sg785
(lp2594
g787
asbasg773
I00
sbasbag1
(g720
g3
NtRp2595
(dp2596
g8
g1
(g9
g3
NtRp2597
(dp2598
g12
(tsg13
g14
sg16
g720
sg17
g18
sbsg19
S'diffusion/division of AraC'
p2599
sg41
(lp2600
sg727
S'gamma_A'
p2601
sg29
(lp2602
sg730
g731
sg36
(lp2603
sg52
(lp2604
sg734
g735
sg34
(lp2605
sg737
Nsg38
(lp2606
sg739
F1
sg740
(lp2607
(S'AraC'
I1
tp2608
asg32
g4
sg33
I01
sg46
(lp2609
sg13
g743
sg744
(lp2610
sg749
F1.0000000000000001e-30
sg50
(lp2611
g2597
asg108
(lp2612
g1
(g752
g3
NtRp2613
(dp2614
g755
(lp2615
F9.9999999999999995e-08
aF1000
asg12
(tsg32
g2595
sg757
I01
sg33
I00
sg758
I01
sg759
I00
sg760
g2595
sg182
g727
sg13
g761
sg36
(lp2616
g1
(g765
g3
NtRp2617
(dp2618
g768
(lp2619
g770
asg12
(tsg176
(lp2620
(lp2621
g773
aasg774
(lp2622
(lp2623
g777
aasg778
(lp2624
(lp2625
g2613
aasg781
(lp2626
I00
asg783
g784
sg785
(lp2627
g787
asbasg773
I00
sbag1
(g752
g3
NtRp2628
(dp2629
g755
(lp2630
F9.9999999999999995e-08
aF1000
asg12
(tsg32
g2595
sg757
I01
sg33
I00
sg758
I01
sg759
I00
sg760
g2595
sg182
g727
sg13
g761
sg36
(lp2631
g1
(g765
g3
NtRp2632
(dp2633
g768
(lp2634
g770
asg12
(tsg176
(lp2635
(lp2636
g773
aasg774
(lp2637
(lp2638
g777
aasg778
(lp2639
(lp2640
g2628
aasg781
(lp2641
I00
asg783
g784
sg785
(lp2642
g787
asbasg773
I00
sbag1
(g752
g3
NtRp2643
(dp2644
g755
(lp2645
F9.9999999999999995e-08
aF1000
asg12
(tsg32
g2595
sg757
I01
sg33
I00
sg758
I01
sg759
I00
sg760
g2595
sg182
g727
sg13
g761
sg36
(lp2646
g1
(g765
g3
NtRp2647
(dp2648
g768
(lp2649
g770
asg12
(tsg176
(lp2650
(lp2651
g773
aasg774
(lp2652
(lp2653
g777
aasg778
(lp2654
(lp2655
g2643
aasg781
(lp2656
I00
asg783
g784
sg785
(lp2657
g787
asbasg773
I00
sbag1
(g752
g3
NtRp2658
(dp2659
g755
(lp2660
F9.9999999999999995e-08
aF1000
asg12
(tsg32
g2595
sg757
I01
sg33
I00
sg758
I01
sg759
I00
sg760
g2595
sg182
g727
sg13
g761
sg36
(lp2661
g1
(g765
g3
NtRp2662
(dp2663
g768
(lp2664
g770
asg12
(tsg176
(lp2665
(lp2666
g773
aasg774
(lp2667
(lp2668
g777
aasg778
(lp2669
(lp2670
g2658
aasg781
(lp2671
I00
asg783
g784
sg785
(lp2672
g787
asbasg773
I00
sbag1
(g752
g3
NtRp2673
(dp2674
g755
(lp2675
F9.9999999999999995e-08
aF1000
asg12
(tsg32
g2595
sg757
I01
sg33
I00
sg758
I01
sg759
I00
sg760
g2595
sg182
g727
sg13
g761
sg36
(lp2676
g1
(g765
g3
NtRp2677
(dp2678
g768
(lp2679
g770
asg12
(tsg176
(lp2680
(lp2681
g773
aasg774
(lp2682
(lp2683
g777
aasg778
(lp2684
(lp2685
g2673
aasg781
(lp2686
I00
asg783
g784
sg785
(lp2687
g787
asbasg773
I00
sbag1
(g752
g3
NtRp2688
(dp2689
g755
(lp2690
F9.9999999999999995e-08
aF1000
asg12
(tsg32
g2595
sg757
I01
sg33
I00
sg758
I01
sg759
I00
sg760
g2595
sg182
g727
sg13
g761
sg36
(lp2691
g1
(g765
g3
NtRp2692
(dp2693
g768
(lp2694
g770
asg12
(tsg176
(lp2695
(lp2696
g773
aasg774
(lp2697
(lp2698
g777
aasg778
(lp2699
(lp2700
g2688
aasg781
(lp2701
I00
asg783
g784
sg785
(lp2702
g787
asbasg773
I00
sbasbag1
(g720
g3
NtRp2703
(dp2704
g8
g1
(g9
g3
NtRp2705
(dp2706
g12
(tsg13
g14
sg16
g720
sg17
g18
sbsg19
S'diffusion/division of AraC2'
p2707
sg41
(lp2708
sg727
S'gamma_A2'
p2709
sg29
(lp2710
sg730
g731
sg36
(lp2711
sg52
(lp2712
sg734
g735
sg34
(lp2713
sg737
Nsg38
(lp2714
sg739
F1
sg740
(lp2715
(S'AraC2'
I1
tp2716
asg32
g4
sg33
I01
sg46
(lp2717
sg13
g743
sg744
(lp2718
sg749
F1.0000000000000001e-30
sg50
(lp2719
g2705
asg108
(lp2720
g1
(g752
g3
NtRp2721
(dp2722
g755
(lp2723
F9.9999999999999995e-08
aF1000
asg12
(tsg32
g2703
sg757
I01
sg33
I00
sg758
I01
sg759
I00
sg760
g2703
sg182
g727
sg13
g761
sg36
(lp2724
g1
(g765
g3
NtRp2725
(dp2726
g768
(lp2727
g770
asg12
(tsg176
(lp2728
(lp2729
g773
aasg774
(lp2730
(lp2731
g777
aasg778
(lp2732
(lp2733
g2721
aasg781
(lp2734
I00
asg783
g784
sg785
(lp2735
g787
asbasg773
I00
sbag1
(g752
g3
NtRp2736
(dp2737
g755
(lp2738
F9.9999999999999995e-08
aF1000
asg12
(tsg32
g2703
sg757
I01
sg33
I00
sg758
I01
sg759
I00
sg760
g2703
sg182
g727
sg13
g761
sg36
(lp2739
g1
(g765
g3
NtRp2740
(dp2741
g768
(lp2742
g770
asg12
(tsg176
(lp2743
(lp2744
g773
aasg774
(lp2745
(lp2746
g777
aasg778
(lp2747
(lp2748
g2736
aasg781
(lp2749
I00
asg783
g784
sg785
(lp2750
g787
asbasg773
I00
sbag1
(g752
g3
NtRp2751
(dp2752
g755
(lp2753
F9.9999999999999995e-08
aF1000
asg12
(tsg32
g2703
sg757
I01
sg33
I00
sg758
I01
sg759
I00
sg760
g2703
sg182
g727
sg13
g761
sg36
(lp2754
g1
(g765
g3
NtRp2755
(dp2756
g768
(lp2757
g770
asg12
(tsg176
(lp2758
(lp2759
g773
aasg774
(lp2760
(lp2761
g777
aasg778
(lp2762
(lp2763
g2751
aasg781
(lp2764
I00
asg783
g784
sg785
(lp2765
g787
asbasg773
I00
sbag1
(g752
g3
NtRp2766
(dp2767
g755
(lp2768
F9.9999999999999995e-08
aF1000
asg12
(tsg32
g2703
sg757
I01
sg33
I00
sg758
I01
sg759
I00
sg760
g2703
sg182
g727
sg13
g761
sg36
(lp2769
g1
(g765
g3
NtRp2770
(dp2771
g768
(lp2772
g770
asg12
(tsg176
(lp2773
(lp2774
g773
aasg774
(lp2775
(lp2776
g777
aasg778
(lp2777
(lp2778
g2766
aasg781
(lp2779
I00
asg783
g784
sg785
(lp2780
g787
asbasg773
I00
sbag1
(g752
g3
NtRp2781
(dp2782
g755
(lp2783
F9.9999999999999995e-08
aF1000
asg12
(tsg32
g2703
sg757
I01
sg33
I00
sg758
I01
sg759
I00
sg760
g2703
sg182
g727
sg13
g761
sg36
(lp2784
g1
(g765
g3
NtRp2785
(dp2786
g768
(lp2787
g770
asg12
(tsg176
(lp2788
(lp2789
g773
aasg774
(lp2790
(lp2791
g777
aasg778
(lp2792
(lp2793
g2781
aasg781
(lp2794
I00
asg783
g784
sg785
(lp2795
g787
asbasg773
I00
sbag1
(g752
g3
NtRp2796
(dp2797
g755
(lp2798
F9.9999999999999995e-08
aF1000
asg12
(tsg32
g2703
sg757
I01
sg33
I00
sg758
I01
sg759
I00
sg760
g2703
sg182
g727
sg13
g761
sg36
(lp2799
g1
(g765
g3
NtRp2800
(dp2801
g768
(lp2802
g770
asg12
(tsg176
(lp2803
(lp2804
g773
aasg774
(lp2805
(lp2806
g777
aasg778
(lp2807
(lp2808
g2796
aasg781
(lp2809
I00
asg783
g784
sg785
(lp2810
g787
asbasg773
I00
sbasbasS'functions'
p2811
(dp2812
g153
g1
(clibs.modules.libchemicallite
function_cont
p2813
g3
NtRp2814
(dp2815
g8
g1
(g9
g3
NtRp2816
(dp2817
g12
(tsg13
g14
sg16
g2813
sg17
g18
sbsg19
g153
sg29
(lp2818
sg32
Nsg33
I01
sg38
(lp2819
sg36
(lp2820
sg41
(lp2821
sg46
(lp2822
sg684
I00
sg34
(lp2823
sg50
(lp2824
g2816
asS'func_statement'
p2825
S'mu * kappa_L4 / (k_mu + (GFP * kappa_G) + (CFP * kappa_C) + (LacI * kappa_L) + (AraC * kappa_A) + (AraC * kappa_A2) + (LacI4 * kappa_L4))'
p2826
sg52
(lp2827
sbsg154
g1
(g2813
g3
NtRp2828
(dp2829
g8
g1
(g9
g3
NtRp2830
(dp2831
g12
(tsg13
g14
sg16
g2813
sg17
g18
sbsg19
g154
sg29
(lp2832
sg32
Nsg33
I01
sg38
(lp2833
sg36
(lp2834
sg41
(lp2835
sg46
(lp2836
sg684
I00
sg34
(lp2837
sg50
(lp2838
g2830
asg2825
S'mu * kappa_A / (k_mu + (GFP * kappa_G) + (CFP * kappa_C) + (LacI * kappa_L) + (AraC * kappa_A) + (AraC * kappa_A2) + (LacI4 * kappa_L4))'
p2839
sg52
(lp2840
sbsg155
g1
(g2813
g3
NtRp2841
(dp2842
g8
g1
(g9
g3
NtRp2843
(dp2844
g12
(tsg13
g14
sg16
g2813
sg17
g18
sbsg19
g155
sg29
(lp2845
sg32
Nsg33
I01
sg38
(lp2846
sg36
(lp2847
sg41
(lp2848
sg46
(lp2849
sg684
I00
sg34
(lp2850
sg50
(lp2851
g2843
asg2825
S'mu * kappa_A2 / (k_mu + (GFP * kappa_G) + (CFP * kappa_C) + (LacI * kappa_L) + (AraC * kappa_A) + (AraC * kappa_A2) + (LacI4 * kappa_L4))'
p2852
sg52
(lp2853
sbsg156
g1
(g2813
g3
NtRp2854
(dp2855
g8
g1
(g9
g3
NtRp2856
(dp2857
g12
(tsg13
g14
sg16
g2813
sg17
g18
sbsg19
g156
sg29
(lp2858
sg32
Nsg33
I01
sg38
(lp2859
sg36
(lp2860
sg41
(lp2861
sg46
(lp2862
sg684
I00
sg34
(lp2863
sg50
(lp2864
g2856
asg2825
S'mu * kappa_L / (k_mu + (GFP * kappa_G) + (CFP * kappa_C) + (LacI * kappa_L) + (AraC * kappa_A) + (AraC * kappa_A2) + (LacI4 * kappa_L4))'
p2865
sg52
(lp2866
sbsg157
g1
(g2813
g3
NtRp2867
(dp2868
g8
g1
(g9
g3
NtRp2869
(dp2870
g12
(tsg13
g14
sg16
g2813
sg17
g18
sbsg19
g157
sg29
(lp2871
sg32
Nsg33
I01
sg38
(lp2872
sg36
(lp2873
sg41
(lp2874
sg46
(lp2875
sg684
I00
sg34
(lp2876
sg50
(lp2877
g2869
asg2825
S'alpha_CA * ((pwm_square(AHL_pwm_tau:AHL_pwm_phi:AHL_pwm:time)**2)/((k_A**2) + (pwm_square(AHL_pwm_tau:AHL_pwm_phi:AHL_pwm:time)**2)))'
p2878
sg52
(lp2879
sbsg158
g1
(g2813
g3
NtRp2880
(dp2881
g8
g1
(g9
g3
NtRp2882
(dp2883
g12
(tsg13
g14
sg16
g2813
sg17
g18
sbsg19
g158
sg29
(lp2884
sg32
Nsg33
I01
sg38
(lp2885
sg36
(lp2886
sg41
(lp2887
sg46
(lp2888
sg684
I00
sg34
(lp2889
sg50
(lp2890
g2882
asg2825
S'mu * kappa_G / (k_mu + (GFP * kappa_G) + (CFP * kappa_C) + (LacI * kappa_L) + (AraC * kappa_A) + (AraC * kappa_A2) + (LacI4 * kappa_L4))'
p2891
sg52
(lp2892
sbsg159
g1
(g2813
g3
NtRp2893
(dp2894
g8
g1
(g9
g3
NtRp2895
(dp2896
g12
(tsg13
g14
sg16
g2813
sg17
g18
sbsg19
g159
sg29
(lp2897
sg32
Nsg33
I01
sg38
(lp2898
sg36
(lp2899
sg41
(lp2900
sg46
(lp2901
sg684
I00
sg34
(lp2902
sg50
(lp2903
g2895
asg2825
S'alpha_GLA * ((k_L**2)/((k_L**2) + (LacI4**2))) * (AraC2/(k_A + AraC2))'
p2904
sg52
(lp2905
sbsg160
g1
(g2813
g3
NtRp2906
(dp2907
g8
g1
(g9
g3
NtRp2908
(dp2909
g12
(tsg13
g14
sg16
g2813
sg17
g18
sbsg19
g160
sg29
(lp2910
sg32
Nsg33
I01
sg38
(lp2911
sg36
(lp2912
sg41
(lp2913
sg46
(lp2914
sg684
I00
sg34
(lp2915
sg50
(lp2916
g2908
asg2825
S'mu * kappa_C / (k_mu + (GFP * kappa_G) + (CFP * kappa_C) + (LacI * kappa_L) + (AraC * kappa_A) + (AraC * kappa_A2) + (LacI4 * kappa_L4))'
p2917
sg52
(lp2918
sbssg116
(lp2919
S'time'
p2920
aS'fixed_time'
p2921
ag157
ag159
ag399
ag400
asg68
g69
sS'variables'
p2922
(dp2923
g127
g1
(g673
g3
NtRp2924
(dp2925
g8
g1
(g9
g3
NtRp2926
(dp2927
g12
(tsg13
g14
sg16
g673
sg17
g18
sbsg19
g127
sg29
(lp2928
sg32
g4
sg33
I01
sg671
S'0.001'
p2929
sg36
(lp2930
sg41
(lp2931
sg38
(lp2932
sg46
(lp2933
sg684
I00
sg34
(lp2934
sg50
(lp2935
g2926
asg52
(lp2936
sbsg128
g1
(g673
g3
NtRp2937
(dp2938
g8
g1
(g9
g3
NtRp2939
(dp2940
g12
(tsg13
g14
sg16
g673
sg17
g18
sbsg19
g128
sg29
(lp2941
sg32
g4
sg33
I01
sg671
S'0.0015'
p2942
sg36
(lp2943
sg41
(lp2944
sg38
(lp2945
sg46
(lp2946
sg684
I00
sg34
(lp2947
sg50
(lp2948
g2939
asg52
(lp2949
sbsg129
g1
(g673
g3
NtRp2950
(dp2951
g8
g1
(g9
g3
NtRp2952
(dp2953
g12
(tsg13
g14
sg16
g673
sg17
g18
sbsg19
g129
sg29
(lp2954
sg32
g4
sg33
I01
sg671
S'0.001'
p2955
sg36
(lp2956
sg41
(lp2957
sg38
(lp2958
sg46
(lp2959
sg684
I00
sg34
(lp2960
sg50
(lp2961
g2952
asg52
(lp2962
sbsg130
g1
(g673
g3
NtRp2963
(dp2964
g8
g1
(g9
g3
NtRp2965
(dp2966
g12
(tsg13
g14
sg16
g673
sg17
g18
sbsg19
g130
sg29
(lp2967
sg32
g4
sg33
I01
sg671
S'0.001'
p2968
sg36
(lp2969
sg41
(lp2970
sg38
(lp2971
sg46
(lp2972
sg684
I00
sg34
(lp2973
sg50
(lp2974
g2965
asg52
(lp2975
sbsg131
g1
(g673
g3
NtRp2976
(dp2977
g8
g1
(g9
g3
NtRp2978
(dp2979
g12
(tsg13
g14
sg16
g673
sg17
g18
sbsg19
g131
sg29
(lp2980
sg32
g4
sg33
I01
sg671
S'0.001'
p2981
sg36
(lp2982
sg41
(lp2983
sg38
(lp2984
sg46
(lp2985
sg684
I00
sg34
(lp2986
sg50
(lp2987
g2978
asg52
(lp2988
sbsg132
g1
(g673
g3
NtRp2989
(dp2990
g8
g1
(g9
g3
NtRp2991
(dp2992
g12
(tsg13
g14
sg16
g673
sg17
g18
sbsg19
g132
sg29
(lp2993
sg32
g4
sg33
I01
sg671
S'0.0025'
p2994
sg36
(lp2995
sg41
(lp2996
sg38
(lp2997
sg46
(lp2998
sg684
I00
sg34
(lp2999
sg50
(lp3000
g2991
asg52
(lp3001
sbsg133
g1
(g673
g3
NtRp3002
(dp3003
g8
g1
(g9
g3
NtRp3004
(dp3005
g12
(tsg13
g14
sg16
g673
sg17
g18
sbsg19
g133
sg29
(lp3006
sg32
g4
sg33
I01
sg671
S'0.1'
p3007
sg36
(lp3008
sg41
(lp3009
sg38
(lp3010
sg46
(lp3011
sg684
I00
sg34
(lp3012
sg50
(lp3013
g3004
asg52
(lp3014
sbsg134
g674
sg135
g1
(g673
g3
NtRp3015
(dp3016
g8
g1
(g9
g3
NtRp3017
(dp3018
g12
(tsg13
g14
sg16
g673
sg17
g18
sbsg19
g135
sg29
(lp3019
sg32
g4
sg33
I01
sg671
S'0.00015'
p3020
sg36
(lp3021
sg41
(lp3022
sg38
(lp3023
sg46
(lp3024
sg684
I00
sg34
(lp3025
sg50
(lp3026
g3017
asg52
(lp3027
sbsg136
g1
(g673
g3
NtRp3028
(dp3029
g8
g1
(g9
g3
NtRp3030
(dp3031
g12
(tsg13
g14
sg16
g673
sg17
g18
sbsg19
g136
sg29
(lp3032
sg32
g4
sg33
I01
sg671
S'1.0'
p3033
sg36
(lp3034
sg41
(lp3035
sg38
(lp3036
sg46
(lp3037
sg684
I00
sg34
(lp3038
sg50
(lp3039
g3030
asg52
(lp3040
sbsg137
g1
(g673
g3
NtRp3041
(dp3042
g8
g1
(g9
g3
NtRp3043
(dp3044
g12
(tsg13
g14
sg16
g673
sg17
g18
sbsg19
g137
sg29
(lp3045
sg32
g4
sg33
I01
sg671
S'0.0001'
p3046
sg36
(lp3047
sg41
(lp3048
sg38
(lp3049
sg46
(lp3050
sg684
I00
sg34
(lp3051
sg50
(lp3052
g3043
asg52
(lp3053
sbsg138
g1
(g673
g3
NtRp3054
(dp3055
g8
g1
(g9
g3
NtRp3056
(dp3057
g12
(tsg13
g14
sg16
g673
sg17
g18
sbsg19
g138
sg29
(lp3058
sg32
g4
sg33
I01
sg671
S'0.001'
p3059
sg36
(lp3060
sg41
(lp3061
sg38
(lp3062
sg46
(lp3063
sg684
I00
sg34
(lp3064
sg50
(lp3065
g3056
asg52
(lp3066
sbsg139
g1
(g673
g3
NtRp3067
(dp3068
g8
g1
(g9
g3
NtRp3069
(dp3070
g12
(tsg13
g14
sg16
g673
sg17
g18
sbsg19
g139
sg29
(lp3071
sg32
g4
sg33
I01
sg671
S'50.0'
p3072
sg36
(lp3073
sg41
(lp3074
sg38
(lp3075
sg46
(lp3076
sg684
I00
sg34
(lp3077
sg50
(lp3078
g3069
asg52
(lp3079
sbsg140
g1
(g673
g3
NtRp3080
(dp3081
g8
g1
(g9
g3
NtRp3082
(dp3083
g12
(tsg13
g14
sg16
g673
sg17
g18
sbsg19
g140
sg29
(lp3084
sg32
g4
sg33
I01
sg671
S'100.0'
p3085
sg36
(lp3086
sg41
(lp3087
sg38
(lp3088
sg46
(lp3089
sg684
I00
sg34
(lp3090
sg50
(lp3091
g3082
asg52
(lp3092
sbsg141
g1
(g673
g3
NtRp3093
(dp3094
g8
g1
(g9
g3
NtRp3095
(dp3096
g12
(tsg13
g14
sg16
g673
sg17
g18
sbsg19
g141
sg29
(lp3097
sg32
g4
sg33
I01
sg671
S'0.0001'
p3098
sg36
(lp3099
sg41
(lp3100
sg38
(lp3101
sg46
(lp3102
sg684
I00
sg34
(lp3103
sg50
(lp3104
g3095
asg52
(lp3105
sbsg142
g1
(g673
g3
NtRp3106
(dp3107
g8
g1
(g9
g3
NtRp3108
(dp3109
g12
(tsg13
g14
sg16
g673
sg17
g18
sbsg19
g142
sg29
(lp3110
sg32
g4
sg33
I01
sg671
S'1.0'
p3111
sg36
(lp3112
sg41
(lp3113
sg38
(lp3114
sg46
(lp3115
sg684
I00
sg34
(lp3116
sg50
(lp3117
g3108
asg52
(lp3118
sbsg143
g1
(g673
g3
NtRp3119
(dp3120
g8
g1
(g9
g3
NtRp3121
(dp3122
g12
(tsg13
g14
sg16
g673
sg17
g18
sbsg19
g143
sg29
(lp3123
sg32
g4
sg33
I01
sg671
S'2.0'
p3124
sg36
(lp3125
sg41
(lp3126
sg38
(lp3127
sg46
(lp3128
sg684
I00
sg34
(lp3129
sg50
(lp3130
g3121
asg52
(lp3131
sbsg144
g1
(g673
g3
NtRp3132
(dp3133
g8
g1
(g9
g3
NtRp3134
(dp3135
g12
(tsg13
g14
sg16
g673
sg17
g18
sbsg19
g144
sg29
(lp3136
sg32
g4
sg33
I01
sg671
S'0.001'
p3137
sg36
(lp3138
sg41
(lp3139
sg38
(lp3140
sg46
(lp3141
sg684
I00
sg34
(lp3142
sg50
(lp3143
g3134
asg52
(lp3144
sbsg145
g1
(g673
g3
NtRp3145
(dp3146
g8
g1
(g9
g3
NtRp3147
(dp3148
g12
(tsg13
g14
sg16
g673
sg17
g18
sbsg19
g145
sg29
(lp3149
sg32
g4
sg33
I01
sg671
S'0.0'
p3150
sg36
(lp3151
sg41
(lp3152
sg38
(lp3153
sg46
(lp3154
sg684
I00
sg34
(lp3155
sg50
(lp3156
g3147
asg52
(lp3157
sbsg146
g1
(g673
g3
NtRp3158
(dp3159
g8
g1
(g9
g3
NtRp3160
(dp3161
g12
(tsg13
g14
sg16
g673
sg17
g18
sbsg19
g146
sg29
(lp3162
sg32
g4
sg33
I01
sg671
S'50.0'
p3163
sg36
(lp3164
sg41
(lp3165
sg38
(lp3166
sg46
(lp3167
sg684
I00
sg34
(lp3168
sg50
(lp3169
g3160
asg52
(lp3170
sbsg147
g1
(g673
g3
NtRp3171
(dp3172
g8
g1
(g9
g3
NtRp3173
(dp3174
g12
(tsg13
g14
sg16
g673
sg17
g18
sbsg19
g147
sg29
(lp3175
sg32
g4
sg33
I01
sg671
S'10.0'
p3176
sg36
(lp3177
sg41
(lp3178
sg38
(lp3179
sg46
(lp3180
sg684
I00
sg34
(lp3181
sg50
(lp3182
g3173
asg52
(lp3183
sbsg148
g1
(g673
g3
NtRp3184
(dp3185
g8
g1
(g9
g3
NtRp3186
(dp3187
g12
(tsg13
g14
sg16
g673
sg17
g18
sbsg19
g148
sg29
(lp3188
sg32
g4
sg33
I01
sg671
S'1.0'
p3189
sg36
(lp3190
sg41
(lp3191
sg38
(lp3192
sg46
(lp3193
sg684
I00
sg34
(lp3194
sg50
(lp3195
g3186
asg52
(lp3196
sbsg149
g693
sg150
g1
(g673
g3
NtRp3197
(dp3198
g8
g1
(g9
g3
NtRp3199
(dp3200
g12
(tsg13
g14
sg16
g673
sg17
g18
sbsg19
g150
sg29
(lp3201
sg32
g4
sg33
I01
sg671
S'0.15'
p3202
sg36
(lp3203
sg41
(lp3204
sg38
(lp3205
sg46
(lp3206
sg684
I00
sg34
(lp3207
sg50
(lp3208
g3199
asg52
(lp3209
sbsg151
g1
(g673
g3
NtRp3210
(dp3211
g8
g1
(g9
g3
NtRp3212
(dp3213
g12
(tsg13
g14
sg16
g673
sg17
g18
sbsg19
g151
sg29
(lp3214
sg32
g4
sg33
I01
sg671
S'1.0'
p3215
sg36
(lp3216
sg41
(lp3217
sg38
(lp3218
sg46
(lp3219
sg684
I00
sg34
(lp3220
sg50
(lp3221
g3212
asg52
(lp3222
sbsg152
g1
(g673
g3
NtRp3223
(dp3224
g8
g1
(g9
g3
NtRp3225
(dp3226
g12
(tsg13
g14
sg16
g673
sg17
g18
sbsg19
g152
sg29
(lp3227
sg32
g4
sg33
I01
sg671
S'1.0'
p3228
sg36
(lp3229
sg41
(lp3230
sg38
(lp3231
sg46
(lp3232
sg684
I00
sg34
(lp3233
sg50
(lp3234
g3225
asg52
(lp3235
sbssg166
g167
sg252
NsS'bool_expressions'
p3236
g1
(g5
g6
(dp3237
g252
NsS'capt'
p3238
S''
sS'end'
p3239
S''
stRp3240
g3240
bsS'species'
p3241
(dp3242
S'AraC2'
p3243
g1
(clibs.modules.libchemicallite
species
p3244
g3
NtRp3245
(dp3246
g8
g1
(g9
g3
NtRp3247
(dp3248
g12
(tsg13
g14
sg16
g3244
sg17
g18
sbsg19
g3243
sS'current_count'
p3249
I20
sg29
(lp3250
sS'initial_count'
p3251
I20
sg32
g4
sg33
I01
sg13
(lp3252
g40
ag3251
asg737
Nsg38
(lp3253
sg36
(lp3254
sg41
(lp3255
sg46
(lp3256
sg684
I00
sg34
(lp3257
sg50
(lp3258
g3247
asg52
(lp3259
sbsS'LacI'
p3260
g1
(g3244
g3
NtRp3261
(dp3262
g8
g1
(g9
g3
NtRp3263
(dp3264
g12
(tsg13
g14
sg16
g3244
sg17
g18
sbsg19
g3260
sg3249
I1
sg29
(lp3265
sg3251
I1
sg32
g4
sg33
I01
sg13
g3252
sg737
Nsg38
(lp3266
sg36
(lp3267
sg41
(lp3268
sg46
(lp3269
sg684
I00
sg34
(lp3270
sg50
(lp3271
g3263
asg52
(lp3272
sbsg399
g1
(g3244
g3
NtRp3273
(dp3274
g8
g1
(g9
g3
NtRp3275
(dp3276
g12
(tsg13
g14
sg16
g3244
sg17
g18
sbsg19
g399
sg3249
I10
sg29
(lp3277
sg3251
I10
sg32
g4
sg33
I01
sg13
g3252
sg737
Nsg38
(lp3278
sg36
(lp3279
sg41
(lp3280
sg46
(lp3281
sg684
I00
sg34
(lp3282
sg50
(lp3283
g3275
asg52
(lp3284
sbsS'AraC'
p3285
g1
(g3244
g3
NtRp3286
(dp3287
g8
g1
(g9
g3
NtRp3288
(dp3289
g12
(tsg13
g14
sg16
g3244
sg17
g18
sbsg19
g3285
sg3249
I50
sg29
(lp3290
sg3251
I50
sg32
g4
sg33
I01
sg13
g3252
sg737
Nsg38
(lp3291
sg36
(lp3292
sg41
(lp3293
sg46
(lp3294
sg684
I00
sg34
(lp3295
sg50
(lp3296
g3288
asg52
(lp3297
sbsS'LacI4'
p3298
g1
(g3244
g3
NtRp3299
(dp3300
g8
g1
(g9
g3
NtRp3301
(dp3302
g12
(tsg13
g14
sg16
g3244
sg17
g18
sbsg19
g3298
sg3249
I1
sg29
(lp3303
sg3251
I1
sg32
g4
sg33
I01
sg13
g3252
sg737
Nsg38
(lp3304
sg36
(lp3305
sg41
(lp3306
sg46
(lp3307
sg684
I00
sg34
(lp3308
sg50
(lp3309
g3301
asg52
(lp3310
sbsg400
g1
(g3244
g3
NtRp3311
(dp3312
g8
g1
(g9
g3
NtRp3313
(dp3314
g12
(tsg13
g14
sg16
g3244
sg17
g18
sbsg19
g400
sg3249
I10
sg29
(lp3315
sg3251
I10
sg32
g4
sg33
I01
sg13
g3252
sg737
Nsg38
(lp3316
sg36
(lp3317
sg41
(lp3318
sg46
(lp3319
sg684
I00
sg34
(lp3320
sg50
(lp3321
g3313
asg52
(lp3322
sbsstRp3323
g3323
bsg34
(lp3324
sg50
(lp3325
g438
asg52
(lp3326
sbsg38
(lp3327
sS'data_pool_id'
p3328
S'1393754488.94'
p3329
sg252
NsS'run_params'
p3330
g1
(g5
g6
(dp3331
g718
g719
sg2811
g2812
sg116
g2919
sg68
g69
sg2922
g2923
sg426
(dp3332
g737
g3323
sS'template owners'
p3333
g1
(g5
g6
(dp3334
g252
Nsg718
g719
sg2922
g2923
sg2811
g2812
sg3241
g3242
stRp3335
g3335
bssg166
g167
sS'multiprocessing'
p3336
Nsg252
g4
sS'output_plans'
p3337
(dp3338
g240
g236
ssg3236
g3240
sg44
g45
sS'p_space_map'
p3339
Nsg3241
(dp3340
g121
g3245
sg122
g3261
sg123
g3273
sg124
g3286
sg125
g3299
sg126
g3311
ssS'fit_routines'
p3341
(lp3342
stRp3343
g3343
bsg375
g376
sS'data_pool_descr'
p3344
S'Data Pool Holds 1 Simulation Trajectories and 0 Post Process Pools'
p3345
sS'mcfg_dir'
p3346
S'C:\\Users\\bartl_000\\Desktop\\Work\\Modular\\chemicallite'
p3347
sS'use_color_plot'
p3348
I00
sg29
(lp3349
sS'treebook_memory'
p3350
(lp3351
I3
a(lp3352
I8
aI1
aasg32
Nsg33
I01
sS'use_line_plot'
p3353
I01
sS'cancel_make'
p3354
I00
sg46
(lp3355
sS'data_pool'
p3356
(lp3357
sg373
g374
sS'data_pool_pkl'
p3358
S'C:\\Users\\bartl_000\\Desktop\\Work\\Modular\\data_pools\\data_pool.1393754488.94.pkl'
p3359
sS'fitting_plan'
p3360
g1
(clibs.modular_core.libfitroutine
fit_routine_plan
p3361
g3
NtRp3362
(dp3363
g8
g1
(g9
g3
NtRp3364
(dp3365
g12
(tsg13
g14
sg16
g3361
sg17
g18
sbsg19
S'fit routine plan'
p3366
sg29
(lp3367
sg31
I00
sg32
g4
sg33
I01
sS'routines'
p3368
g3342
sS'selected_routine'
p3369
Nsg36
(lp3370
sg41
(lp3371
sg38
(lp3372
sg46
(lp3373
sg34
(lp3374
sg50
(lp3375
g3364
asg52
(lp3376
sbsg426
(dp3377
S'template owners'
p3378
g1
(g5
g6
(dp3379
g234
g236
sg22
g24
sg58
g60
sg252
Nsg3330
g3343
sg434
g436
sg195
g197
sg3360
g3362
stRp3380
g3380
bssS'_make_rxn_'
p3381
Nsg34
(lp3382
sS'mcfg_text_box_ref'
p3383
Nsg50
(lp3384
g10
asg108
(lp3385
g60
ag236
ag3362
ag436
ag24
ag197
ag721
ag863
ag972
ag1081
ag1190
ag1299
ag1407
ag1515
ag1623
ag1731
ag1839
ag1947
ag2055
ag2163
ag2271
ag2379
ag2487
ag2595
ag2703
astRp3386
g3386
bb.