ccopy_reg
_reconstructor
p1
(clibs.modular_core.libsimcomponents
ensemble
p2
c__builtin__
object
p3
NtRp4
g1
(clibs.modular_core.libfundamental
dictionary
p5
c__builtin__
dict
p6
(dp7
S'base_class'
p8
g1
(clibs.modular_core.libfundamental
interface_template_class
p9
g3
NtRp10
(dp11
S'args'
p12
(tsS'visible_attributes'
p13
(lp14
S'base_tag'
p15
asS'_class'
p16
g2
sS'_tag'
p17
S'__modu_object__'
p18
sbsS'_label'
p19
Vpwm
p20
sS'_make_spec_'
p21
NsS'postprocess_plan'
p22
g1
(clibs.modular_core.libpostprocess
post_process_plan
p23
g3
NtRp24
(dp25
g8
g1
(g9
g3
NtRp26
(dp27
g12
(tsg13
g14
sg16
g23
sg17
g18
sbsg19
S'Post Process Plan'
p28
sS'parameter_space_templates'
p29
(lp30
sS'use_plan'
p31
I01
sS'parent'
p32
g4
sS'rewidget_'
p33
I01
sS'data'
p34
(lp35
sS'widg_templates'
p36
(lp37
sS'_handles_'
p38
(lp39
sS'label'
p40
g28
sS'tool_templates'
p41
(lp42
sS'process_selector'
p43
NsS'post_processes'
p44
(lp45
sS'widg_dialog_templates'
p46
(lp47
sS'selected_process_label'
p48
S'None'
p49
sS'valid_base_classes'
p50
(lp51
g26
asS'menu_templates'
p52
(lp53
sbsS'module'
p54
S'chemicallite'
p55
sg41
(lp56
sS'skip_simulation'
p57
I00
sS'simulation_plan'
p58
g1
(clibs.modular_core.libsimcomponents
simulation_plan
p59
g3
NtRp60
(dp61
g8
g1
(g9
g3
NtRp62
(dp63
g12
(tsg13
g14
sg16
g59
sg17
g18
sbsg19
S'simulation plan'
p64
sS'widg_templates_capture_criteria'
p65
(lp66
sS'selected_end_crit_label'
p67
g49
sS'end_criteria'
p68
(lp69
g1
(clibs.modular_core.libcriterion
criterion_sim_time
p70
g3
NtRp71
(dp72
g8
g1
(g9
g3
NtRp73
(dp74
g12
(tsg13
g14
sg16
g70
sg17
S'time limit'
p75
sbsg19
S'time limit criterion'
p76
sg29
(lp77
sg32
g60
sg33
I01
sg34
(lp78
sg38
(lp79
sg36
(lp80
sg41
(lp81
sS'max_time'
p82
S'1000'
p83
sg46
(lp84
sS'bRelevant'
p85
I01
sg52
(lp86
sg13
(lp87
g40
ag8
ag85
ag82
asg50
(lp88
g1
(g9
g3
NtRp89
(dp90
g12
(tsg13
g14
sg16
g70
sg17
S'time limit'
p91
sbag1
(g9
g3
NtRp92
(dp93
g12
(tsg13
g14
sg16
clibs.modular_core.libcriterion
criterion_iteration
p94
sg17
S'iteration limit'
p95
sbag1
(g9
g3
NtRp96
(dp97
g12
(tsg13
g14
sg16
clibs.modular_core.libcriterion
criterion_capture_count
p98
sg17
S'capture limit'
p99
sbag1
(g9
g3
NtRp100
(dp101
g12
(tsg13
g14
sg16
clibs.modules.libchemicallite
criterion_spec_included_scaler_increment
p102
sg17
S'species scaler increment'
p103
sbag1
(g9
g3
NtRp104
(dp105
g12
(tsg13
g14
sg16
clibs.modules.libchemicallite
criterion_species_count
p106
sg17
S'species count'
p107
sbasS'_children_'
p108
(lp109
sbasS'capt_crit_selector'
p110
Nsg41
(lp111
sS'selected_capt_crit_label'
p112
g49
sS'end_crit_selector'
p113
Nsg36
(lp114
sg52
(lp115
sS'plot_targets'
p116
(lp117
S'iteration'
p118
aS'time'
p119
aS'fixed_time'
p120
aS'AraC2'
p121
aS'LacI'
p122
aS'GFP'
p123
aS'AraC'
p124
aS'LacI4'
p125
aS'CFP'
p126
aS'gamma_L'
p127
aS'tau_L'
p128
aS'gamma_G'
p129
aS'gamma_A'
p130
aS'gamma_C'
p131
aS'tau_A'
p132
aS'lambda_C'
p133
aS'kappa_C'
p134
aS'eta_L'
p135
aS'kappa_A2'
p136
aS'eta_A'
p137
aS'gamma_L4'
p138
aS'alpha_GLA'
p139
aS'AHL_pwm_tau'
p140
aS'k_mu'
p141
aS'k_L'
p142
aS'k_A'
p143
aS'gamma_A2'
p144
aS'alpha_CA'
p145
aS'mu'
p146
aS'kappa_A'
p147
aS'kappa_G'
p148
aS'AHL_pwm'
p149
aS'kappa_L4'
p150
aS'kappa_L'
p151
aS'function'
p152
aS'g_L4'
p153
aS'g_A'
p154
aS'g_A2'
p155
aS'g_L'
p156
aS'lambda_CA'
p157
aS'g_G'
p158
aS'lambda_GLA'
p159
aS'g_C'
p160
asS'widg_templates_plot_targets'
p161
(lp162
sS'selected_end_crit'
p163
Nsg38
(lp164
sg29
(lp165
sg32
g4
sg33
I01
sS'capture_criteria'
p166
(lp167
g1
(g102
g3
NtRp168
(dp169
g8
g1
(g9
g3
NtRp170
(dp171
g12
(tsg13
g14
sg16
g102
sg17
S'species scaler increment'
p172
sbsg19
S'scaler increment criterion'
p173
sg29
(lp174
sS'increment'
p175
F1
sg32
g60
sg33
I01
sS'keys'
p176
(lp177
g118
ag119
ag121
ag122
ag123
ag124
ag125
ag126
asg34
(lp178
sg38
(lp179
sg36
(lp180
sg41
(lp181
sS'key'
p182
S'time'
p183
sg46
(lp184
sg85
I01
sg52
(lp185
sg13
(lp186
g40
ag8
ag85
ag182
ag176
ag175
asg50
g88
sg108
(lp187
sbasS'widg_templates_end_criteria'
p188
(lp189
sg46
(lp190
sg34
(lp191
sg31
I00
sS'selected_capt_crit'
p192
Nsg50
(lp193
g62
asbsS'tree_reference'
p194
NsS'multiprocess_plan'
p195
g1
(clibs.modular_core.libmultiprocess
multiprocess_plan
p196
g3
NtRp197
(dp198
g8
g1
(g9
g3
NtRp199
(dp200
g12
(tsg13
g14
sg16
g196
sg17
g18
sbsg19
S'multiprocess plan'
p201
sg29
(lp202
sg31
I01
sg32
g4
sg33
I01
sS'worker_count'
p203
I8
sg38
(lp204
sg36
(lp205
sg41
(lp206
sS'worker_report'
p207
(lp208
S'location dex: 1 runs this round: 1 in: 2.99799990654 seconds'
p209
asg46
(lp210
sS'gpu_worker'
p211
(ilibs.gpu.lib_gpu
CL
p212
(dp213
S'gpu_cl_extensions'
p214
(dp215
S'addition'
p216
S'C:\\Users\\bartl_000\\Desktop\\Work\\Modular\\libs\\gpu\\lib_gpu1to1addition.cl'
p217
sS'multiplication'
p218
S'C:\\Users\\bartl_000\\Desktop\\Work\\Modular\\libs\\gpu\\lib_gpu1to1multiplication.cl'
p219
sS'subtraction'
p220
S'C:\\Users\\bartl_000\\Desktop\\Work\\Modular\\libs\\gpu\\lib_gpu1to1subtraction.cl'
p221
sS'division'
p222
S'C:\\Users\\bartl_000\\Desktop\\Work\\Modular\\libs\\gpu\\lib_gpu1to1division.cl'
p223
ssbsg34
(lp224
sg50
(lp225
g199
asg52
(lp226
sbsS'_module_memory_'
p227
(lp228
sS'data_pool_id'
p229
S'1393741527.17'
p230
sS'num_trajectories'
p231
I1
sg36
(lp232
sg52
(lp233
sS'mcfg_path'
p234
VC:/Users/bartl_000/Desktop/Work/Modular/chemicallite/QEntrain2.mcfg
p235
sS'output_plan'
p236
g1
(clibs.modular_core.liboutput
output_plan
p237
g3
NtRp238
g1
(g5
g6
(dp239
g8
g1
(g9
g3
NtRp240
(dp241
g12
(tsg13
g14
sg16
g237
sg17
g18
sbsg19
S'Simulation'
p242
sS'default_paths_vtk'
p243
I01
sS'default_targets_txt'
p244
I01
sg41
(lp245
sS'save_directory'
p246
S'C:\\Users\\bartl_000\\Desktop\\Work\\Modular\\chemicallite\\output'
p247
sS'output_pkl'
p248
I00
sg52
(lp249
sS'default_targets_vtk'
p250
I01
sg34
(lp251
sg38
(lp252
sg36
(lp253
sS'_parent'
p254
NsS'default_targets_plt'
p255
I01
sS'writers'
p256
(lp257
g1
(clibs.modular_core.liboutput
writer_vtk
p258
g3
NtRp259
(dp260
g8
g1
(g9
g3
NtRp261
(dp262
g12
(tsg13
g14
sg16
g258
sg17
S'vtk writer object'
p263
sbsg19
S'mobj__'
p264
sg29
(lp265
sg32
g238
sg33
I01
sg34
(lp266
sS'axes_manager'
p267
g1
(clibs.modular_core.liboutput
plot_axes_manager
p268
g3
NtRp269
(dp270
g8
g1
(g9
g3
NtRp271
(dp272
g12
(tsg13
g14
sg16
g268
sg17
g18
sbsg19
g264
sg29
(lp273
sg32
g259
sg33
I00
sg38
(lp274
sg36
(lp275
sg41
(lp276
sg46
(lp277
sg52
(lp278
sg34
(lp279
sg50
(lp280
g271
asg108
(lp281
sbsg36
(lp282
sg38
(lp283
sS'filenames'
p284
(lp285
sg41
(lp286
sS'iteration_resolution'
p287
I1
sg46
(lp288
sg52
(lp289
sg13
(lp290
g40
ag8
ag284
ag287
asg50
(lp291
g1
(g9
g3
NtRp292
(dp293
g12
(tsg13
g14
sg16
g258
sg17
S'vtk'
p294
sbag1
(g9
g3
NtRp295
(dp296
g12
(tsg13
g14
sg16
clibs.modular_core.liboutput
writer_pkl
p297
sg17
S'pickle'
p298
sbag1
(g9
g3
NtRp299
(dp300
g12
(tsg13
g14
sg16
clibs.modular_core.liboutput
writer_txt
p301
sg17
S'text'
p302
sbag1
(g9
g3
NtRp303
(dp304
g12
(tsg13
g14
sg16
clibs.modular_core.liboutput
writer_plt
p305
sg17
S'plot'
p306
sbasg108
(lp307
g269
asbag1
(g297
g3
NtRp308
(dp309
g8
g1
(g9
g3
NtRp310
(dp311
g12
(tsg13
g14
sg16
g297
sg17
S'pkl writer object'
p312
sbsg19
g264
sg29
(lp313
sg32
g238
sg33
I01
sg34
(lp314
sg267
g1
(g268
g3
NtRp315
(dp316
g8
g1
(g9
g3
NtRp317
(dp318
g12
(tsg13
g14
sg16
g268
sg17
g18
sbsg19
g264
sg29
(lp319
sg32
g308
sg33
I00
sg38
(lp320
sg36
(lp321
sg41
(lp322
sg46
(lp323
sg52
(lp324
sg34
(lp325
sg50
(lp326
g317
asg108
(lp327
sbsg36
(lp328
sg38
(lp329
sg284
g285
sg41
(lp330
sg287
I1
sg46
(lp331
sg52
(lp332
sg13
(lp333
g40
ag8
ag284
asg50
g291
sg108
(lp334
g315
asbag1
(g301
g3
NtRp335
(dp336
g8
g1
(g9
g3
NtRp337
(dp338
g12
(tsg13
g14
sg16
g301
sg17
S'txt writer object'
p339
sbsg19
g264
sg29
(lp340
sg32
g238
sg33
I01
sg34
(lp341
sg267
g1
(g268
g3
NtRp342
(dp343
g8
g1
(g9
g3
NtRp344
(dp345
g12
(tsg13
g14
sg16
g268
sg17
g18
sbsg19
g264
sg29
(lp346
sg32
g335
sg33
I00
sg38
(lp347
sg36
(lp348
sg41
(lp349
sg46
(lp350
sg52
(lp351
sg34
(lp352
sg50
(lp353
g344
asg108
(lp354
sbsg36
(lp355
sg38
(lp356
sg284
g285
sg41
(lp357
sg46
(lp358
sg52
(lp359
sg13
(lp360
g40
ag8
ag284
asg50
g291
sg108
(lp361
g342
asbag1
(g305
g3
NtRp362
(dp363
g8
g1
(g9
g3
NtRp364
(dp365
g12
(tsg13
g14
sg16
g305
sg17
S'plt writer object'
p366
sbsg19
g264
sg29
(lp367
sS'plt_window'
p368
Nsg32
g238
sg33
I01
sg34
(lp369
sg267
g1
(g268
g3
NtRp370
(dp371
g8
g1
(g9
g3
NtRp372
(dp373
g12
(tsg13
g14
sg16
g268
sg17
g18
sbsg19
g264
sg29
(lp374
sS'x_title'
p375
S'x-title'
p376
sg32
g362
sg33
I00
sS'y_title'
p377
S'y-title'
p378
sS'title'
p379
g379
sg38
(lp380
sg36
(lp381
sg41
(lp382
sg46
(lp383
sg52
(lp384
sg34
(lp385
sg50
(lp386
g372
asg108
(lp387
sbsg36
(lp388
sg38
(lp389
sg284
g285
sg41
(lp390
sg287
I1
sg46
(lp391
sg52
(lp392
sg13
(lp393
g40
ag8
ag284
ag287
asg50
g291
sg108
(lp394
g370
asbasS'output_plt'
p395
I01
sS'default_paths_plt'
p396
I01
sS'flat_data'
p397
I00
sg29
(lp398
sg32
g4
sg33
I01
sS'targeted'
p399
(lp400
g119
ag120
ag157
ag159
aS'AraC2'
p401
aS'LacI'
p402
aS'GFP'
p403
aS'AraC'
p404
aS'LacI4'
p405
aS'CFP'
p406
ag152
asS'outputs'
p407
(lp408
(lp409
g119
ag120
ag157
ag159
ag401
ag402
ag403
ag404
ag405
ag406
ag152
aa(lp410
g119
ag120
ag157
ag159
ag401
ag402
ag403
ag404
ag405
ag406
ag152
aa(lp411
g119
ag120
ag157
ag159
ag401
ag402
ag403
ag404
ag405
ag406
ag152
aa(lp412
g119
ag120
ag157
ag159
ag401
ag402
ag403
ag404
ag405
ag406
ag152
aasS'save_filename'
p413
S'ensemble_output.7'
p414
sg284
(dp415
S'vtk filename'
p416
S''
sS'txt filename'
p417
S''
sS'pkl filename'
p418
S''
sS'plt filename'
p419
S''
ssS'output_txt'
p420
I00
sg46
(lp421
sg13
(lp422
g40
ag31
aS'output_vtk'
p423
ag248
ag420
ag395
ag246
ag413
ag284
aS'directories'
p424
ag399
asS'default_paths_txt'
p425
I01
sS'default_paths_pkl'
p426
I01
sg31
I01
sg424
(dp427
S'vtk directory'
p428
S''
sS'txt directory'
p429
S''
sS'pkl directory'
p430
S''
sS'plt directory'
p431
S''
ssS'partition'
p432
(dp433
S'template owners'
p434
g1
(g5
g6
(dp435
g254
Nsg256
g257
stRp436
g436
bssg423
I00
sS'default_targets_pkl'
p437
I01
sg50
(lp438
g240
asg108
g257
stRp439
g439
bbsg379
g379
sS'cartographer_plan'
p440
g1
(clibs.modular_core.libgeometry
cartographer_plan
p441
g3
NtRp442
(dp443
g8
g1
(g9
g3
NtRp444
(dp445
g12
(tsg13
g14
sg16
g441
sg17
g18
sbsg19
S'Parameter Scan'
p446
sg29
(lp447
sg31
I00
sg32
g4
sg33
I01
sS'controller_ref'
p448
NsS'trajectory'
p449
(lp450
sg118
I0
sS'parameter_space'
p451
Nsg38
(lp452
sg36
(lp453
sg41
(lp454
sS'traj_count'
p455
I1
sS'key_path'
p456
S''
sg46
(lp457
sS'parameter_space_mobjs'
p458
g1
(g5
g6
(dp459
S'reactions'
p460
(lp461
g1
(clibs.modules.libchemicallite
reaction
p462
g3
NtRp463
(dp464
g8
g1
(g9
g3
NtRp465
(dp466
g12
(tsg13
g14
sg16
g462
sg17
g18
sbsg19
S'production of GFP LacI AraC'
p467
sg41
(lp468
sS'rate'
p469
S'lambda_GLA'
p470
sg29
(lp471
sS'occurrences'
p472
(lp473
sg36
(lp474
sg52
(lp475
sS'propensity_scheme'
p476
S'classic'
p477
sg34
(lp478
sS'system'
p479
Nsg38
(lp480
sS'propensity'
p481
F1
sS'used'
p482
(lp483
sg32
g4
sg33
I01
sg46
(lp484
sg13
(lp485
g40
ag476
ag469
ag482
aS'produced'
p486
asg486
(lp487
(g123
I1
tp488
a(g122
I1
tp489
a(g124
I1
tp490
asS'propensity_minimum'
p491
F1.0000000000000001e-30
sg50
(lp492
g465
asg108
(lp493
g1
(clibs.modular_core.libgeometry
interface_template_p_space_axis
p494
g3
NtRp495
(dp496
S'p_sp_bounds'
p497
(lp498
F9.9999999999999995e-08
aF1000
asg12
(tsg32
g463
sS'p_sp_continuous'
p499
I01
sg33
I00
sS'gui_give_p_sp_control'
p500
I01
sS'gui_give_p_sp_cont_disc_control'
p501
I00
sS'instance'
p502
g463
sg182
g469
sg13
(lp503
S'reference'
p504
aS'linkages'
p505
asg36
(lp506
g1
(clibs.gui.libqtgui_masons
interface_template_gui
p507
g3
NtRp508
(dp509
S'box_labels'
p510
(lp511
S'Parameter Space'
p512
asg12
(tsg176
(lp513
(lp514
S'contribute_to_p_sp'
p515
aasS'labels'
p516
(lp517
(lp518
S'Contribute to Parameter Space'
p519
aasS'instances'
p520
(lp521
(lp522
g495
aasS'append_instead'
p523
(lp524
I00
asS'gui_package'
p525
S'PySide'
p526
sS'widgets'
p527
(lp528
S'check_set'
p529
asbasg515
I00
sbag1
(g494
g3
NtRp530
(dp531
g497
(lp532
F9.9999999999999995e-08
aF1000
asg12
(tsg32
g463
sg499
I01
sg33
I00
sg500
I01
sg501
I00
sg502
g463
sg182
g469
sg13
g503
sg36
(lp533
g1
(g507
g3
NtRp534
(dp535
g510
(lp536
g512
asg12
(tsg176
(lp537
(lp538
g515
aasg516
(lp539
(lp540
g519
aasg520
(lp541
(lp542
g530
aasg523
(lp543
I00
asg525
g526
sg527
(lp544
g529
asbasg515
I00
sbasbag1
(g462
g3
NtRp545
(dp546
g8
g1
(g9
g3
NtRp547
(dp548
g12
(tsg13
g14
sg16
g462
sg17
g18
sbsg19
S'dimerization of AraC'
p549
sg41
(lp550
sg469
S'tau_A'
p551
sg29
(lp552
sg472
g473
sg36
(lp553
sg52
(lp554
sg476
g477
sg34
(lp555
sg479
Nsg38
(lp556
sg481
F1
sg482
(lp557
(g124
I2
tp558
asg32
g4
sg33
I01
sg46
(lp559
sg13
g485
sg486
(lp560
(g121
I1
tp561
asg491
F1.0000000000000001e-30
sg50
(lp562
g547
asg108
(lp563
g1
(g494
g3
NtRp564
(dp565
g497
(lp566
F9.9999999999999995e-08
aF1000
asg12
(tsg32
g545
sg499
I01
sg33
I00
sg500
I01
sg501
I00
sg502
g545
sg182
g469
sg13
g503
sg36
(lp567
g1
(g507
g3
NtRp568
(dp569
g510
(lp570
g512
asg12
(tsg176
(lp571
(lp572
g515
aasg516
(lp573
(lp574
g519
aasg520
(lp575
(lp576
g564
aasg523
(lp577
I00
asg525
g526
sg527
(lp578
g529
asbasg515
I00
sbag1
(g494
g3
NtRp579
(dp580
g497
(lp581
F9.9999999999999995e-08
aF1000
asg12
(tsg32
g545
sg499
I01
sg33
I00
sg500
I01
sg501
I00
sg502
g545
sg182
g469
sg13
g503
sg36
(lp582
g1
(g507
g3
NtRp583
(dp584
g510
(lp585
g512
asg12
(tsg176
(lp586
(lp587
g515
aasg516
(lp588
(lp589
g519
aasg520
(lp590
(lp591
g579
aasg523
(lp592
I00
asg525
g526
sg527
(lp593
g529
asbasg515
I00
sbasbag1
(g462
g3
NtRp594
(dp595
g8
g1
(g9
g3
NtRp596
(dp597
g12
(tsg13
g14
sg16
g462
sg17
g18
sbsg19
S'inverse-dimerization of AraC2'
p598
sg41
(lp599
sg469
S'eta_A'
p600
sg29
(lp601
sg472
g473
sg36
(lp602
sg52
(lp603
sg476
g477
sg34
(lp604
sg479
Nsg38
(lp605
sg481
F1
sg482
(lp606
(S'AraC2'
I1
tp607
asg32
g4
sg33
I01
sg46
(lp608
sg13
g485
sg486
(lp609
(g124
I2
tp610
asg491
F1.0000000000000001e-30
sg50
(lp611
g596
asg108
(lp612
g1
(g494
g3
NtRp613
(dp614
g497
(lp615
F9.9999999999999995e-08
aF1000
asg12
(tsg32
g594
sg499
I01
sg33
I00
sg500
I01
sg501
I00
sg502
g594
sg182
g469
sg13
g503
sg36
(lp616
g1
(g507
g3
NtRp617
(dp618
g510
(lp619
g512
asg12
(tsg176
(lp620
(lp621
g515
aasg516
(lp622
(lp623
g519
aasg520
(lp624
(lp625
g613
aasg523
(lp626
I00
asg525
g526
sg527
(lp627
g529
asbasg515
I00
sbag1
(g494
g3
NtRp628
(dp629
g497
(lp630
F9.9999999999999995e-08
aF1000
asg12
(tsg32
g594
sg499
I01
sg33
I00
sg500
I01
sg501
I00
sg502
g594
sg182
g469
sg13
g503
sg36
(lp631
g1
(g507
g3
NtRp632
(dp633
g510
(lp634
g512
asg12
(tsg176
(lp635
(lp636
g515
aasg516
(lp637
(lp638
g519
aasg520
(lp639
(lp640
g628
aasg523
(lp641
I00
asg525
g526
sg527
(lp642
g529
asbasg515
I00
sbasbag1
(g462
g3
NtRp643
(dp644
g8
g1
(g9
g3
NtRp645
(dp646
g12
(tsg13
g14
sg16
g462
sg17
g18
sbsg19
S'tetramerization of LacI'
p647
sg41
(lp648
sg469
S'tau_L'
p649
sg29
(lp650
sg472
g473
sg36
(lp651
sg52
(lp652
sg476
g477
sg34
(lp653
sg479
Nsg38
(lp654
sg481
F1
sg482
(lp655
(g122
I4
tp656
asg32
g4
sg33
I01
sg46
(lp657
sg13
g485
sg486
(lp658
(g125
I1
tp659
asg491
F1.0000000000000001e-30
sg50
(lp660
g645
asg108
(lp661
g1
(g494
g3
NtRp662
(dp663
g497
(lp664
F9.9999999999999995e-08
aF1000
asg12
(tsg32
g643
sg499
I01
sg33
I00
sg500
I01
sg501
I00
sg502
g643
sg182
g469
sg13
g503
sg36
(lp665
g1
(g507
g3
NtRp666
(dp667
g510
(lp668
g512
asg12
(tsg176
(lp669
(lp670
g515
aasg516
(lp671
(lp672
g519
aasg520
(lp673
(lp674
g662
aasg523
(lp675
I00
asg525
g526
sg527
(lp676
g529
asbasg515
I00
sbag1
(g494
g3
NtRp677
(dp678
g497
(lp679
F9.9999999999999995e-08
aF1000
asg12
(tsg32
g643
sg499
I01
sg33
I00
sg500
I01
sg501
I00
sg502
g643
sg182
g469
sg13
g503
sg36
(lp680
g1
(g507
g3
NtRp681
(dp682
g510
(lp683
g512
asg12
(tsg176
(lp684
(lp685
g515
aasg516
(lp686
(lp687
g519
aasg520
(lp688
(lp689
g677
aasg523
(lp690
I00
asg525
g526
sg527
(lp691
g529
asbasg515
I00
sbasbag1
(g462
g3
NtRp692
(dp693
g8
g1
(g9
g3
NtRp694
(dp695
g12
(tsg13
g14
sg16
g462
sg17
g18
sbsg19
S'inverse-tetramerization of LacI4'
p696
sg41
(lp697
sg469
S'eta_L'
p698
sg29
(lp699
sg472
g473
sg36
(lp700
sg52
(lp701
sg476
g477
sg34
(lp702
sg479
Nsg38
(lp703
sg481
F1
sg482
(lp704
(S'LacI4'
I1
tp705
asg32
g4
sg33
I01
sg46
(lp706
sg13
g485
sg486
(lp707
(g122
I4
tp708
asg491
F1.0000000000000001e-30
sg50
(lp709
g694
asg108
(lp710
g1
(g494
g3
NtRp711
(dp712
g497
(lp713
F9.9999999999999995e-08
aF1000
asg12
(tsg32
g692
sg499
I01
sg33
I00
sg500
I01
sg501
I00
sg502
g692
sg182
g469
sg13
g503
sg36
(lp714
g1
(g507
g3
NtRp715
(dp716
g510
(lp717
g512
asg12
(tsg176
(lp718
(lp719
g515
aasg516
(lp720
(lp721
g519
aasg520
(lp722
(lp723
g711
aasg523
(lp724
I00
asg525
g526
sg527
(lp725
g529
asbasg515
I00
sbag1
(g494
g3
NtRp726
(dp727
g497
(lp728
F9.9999999999999995e-08
aF1000
asg12
(tsg32
g692
sg499
I01
sg33
I00
sg500
I01
sg501
I00
sg502
g692
sg182
g469
sg13
g503
sg36
(lp729
g1
(g507
g3
NtRp730
(dp731
g510
(lp732
g512
asg12
(tsg176
(lp733
(lp734
g515
aasg516
(lp735
(lp736
g519
aasg520
(lp737
(lp738
g726
aasg523
(lp739
I00
asg525
g526
sg527
(lp740
g529
asbasg515
I00
sbasbag1
(g462
g3
NtRp741
(dp742
g8
g1
(g9
g3
NtRp743
(dp744
g12
(tsg13
g14
sg16
g462
sg17
g18
sbsg19
S'production of CFP via AHL'
p745
sg41
(lp746
sg469
S'lambda_CA'
p747
sg29
(lp748
sg472
g473
sg36
(lp749
sg52
(lp750
sg476
g477
sg34
(lp751
sg479
Nsg38
(lp752
sg481
F1
sg482
(lp753
sg32
g4
sg33
I01
sg46
(lp754
sg13
g485
sg486
(lp755
(g126
I1
tp756
asg491
F1.0000000000000001e-30
sg50
(lp757
g743
asg108
(lp758
g1
(g494
g3
NtRp759
(dp760
g497
(lp761
F9.9999999999999995e-08
aF1000
asg12
(tsg32
g741
sg499
I01
sg33
I00
sg500
I01
sg501
I00
sg502
g741
sg182
g469
sg13
g503
sg36
(lp762
g1
(g507
g3
NtRp763
(dp764
g510
(lp765
g512
asg12
(tsg176
(lp766
(lp767
g515
aasg516
(lp768
(lp769
g519
aasg520
(lp770
(lp771
g759
aasg523
(lp772
I00
asg525
g526
sg527
(lp773
g529
asbasg515
I00
sbag1
(g494
g3
NtRp774
(dp775
g497
(lp776
F9.9999999999999995e-08
aF1000
asg12
(tsg32
g741
sg499
I01
sg33
I00
sg500
I01
sg501
I00
sg502
g741
sg182
g469
sg13
g503
sg36
(lp777
g1
(g507
g3
NtRp778
(dp779
g510
(lp780
g512
asg12
(tsg176
(lp781
(lp782
g515
aasg516
(lp783
(lp784
g519
aasg520
(lp785
(lp786
g774
aasg523
(lp787
I00
asg525
g526
sg527
(lp788
g529
asbasg515
I00
sbasbag1
(g462
g3
NtRp789
(dp790
g8
g1
(g9
g3
NtRp791
(dp792
g12
(tsg13
g14
sg16
g462
sg17
g18
sbsg19
S'basal CFP production'
p793
sg41
(lp794
sg469
S'lambda_C'
p795
sg29
(lp796
sg472
g473
sg36
(lp797
sg52
(lp798
sg476
g477
sg34
(lp799
sg479
Nsg38
(lp800
sg481
F1
sg482
(lp801
sg32
g4
sg33
I01
sg46
(lp802
sg13
g485
sg486
(lp803
(S'CFP'
I1
tp804
asg491
F1.0000000000000001e-30
sg50
(lp805
g791
asg108
(lp806
g1
(g494
g3
NtRp807
(dp808
g497
(lp809
F9.9999999999999995e-08
aF1000
asg12
(tsg32
g789
sg499
I01
sg33
I00
sg500
I01
sg501
I00
sg502
g789
sg182
g469
sg13
g503
sg36
(lp810
g1
(g507
g3
NtRp811
(dp812
g510
(lp813
g512
asg12
(tsg176
(lp814
(lp815
g515
aasg516
(lp816
(lp817
g519
aasg520
(lp818
(lp819
g807
aasg523
(lp820
I00
asg525
g526
sg527
(lp821
g529
asbasg515
I00
sbag1
(g494
g3
NtRp822
(dp823
g497
(lp824
F9.9999999999999995e-08
aF1000
asg12
(tsg32
g789
sg499
I01
sg33
I00
sg500
I01
sg501
I00
sg502
g789
sg182
g469
sg13
g503
sg36
(lp825
g1
(g507
g3
NtRp826
(dp827
g510
(lp828
g512
asg12
(tsg176
(lp829
(lp830
g515
aasg516
(lp831
(lp832
g519
aasg520
(lp833
(lp834
g822
aasg523
(lp835
I00
asg525
g526
sg527
(lp836
g529
asbasg515
I00
sbasbag1
(g462
g3
NtRp837
(dp838
g8
g1
(g9
g3
NtRp839
(dp840
g12
(tsg13
g14
sg16
g462
sg17
g18
sbsg19
S'degradation of GFP'
p841
sg41
(lp842
sg469
S'g_G'
p843
sg29
(lp844
sg472
g473
sg36
(lp845
sg52
(lp846
sg476
g477
sg34
(lp847
sg479
Nsg38
(lp848
sg481
F1
sg482
(lp849
(S'GFP'
I1
tp850
asg32
g4
sg33
I01
sg46
(lp851
sg13
g485
sg486
(lp852
sg491
F1.0000000000000001e-30
sg50
(lp853
g839
asg108
(lp854
g1
(g494
g3
NtRp855
(dp856
g497
(lp857
F9.9999999999999995e-08
aF1000
asg12
(tsg32
g837
sg499
I01
sg33
I00
sg500
I01
sg501
I00
sg502
g837
sg182
g469
sg13
g503
sg36
(lp858
g1
(g507
g3
NtRp859
(dp860
g510
(lp861
g512
asg12
(tsg176
(lp862
(lp863
g515
aasg516
(lp864
(lp865
g519
aasg520
(lp866
(lp867
g855
aasg523
(lp868
I00
asg525
g526
sg527
(lp869
g529
asbasg515
I00
sbag1
(g494
g3
NtRp870
(dp871
g497
(lp872
F9.9999999999999995e-08
aF1000
asg12
(tsg32
g837
sg499
I01
sg33
I00
sg500
I01
sg501
I00
sg502
g837
sg182
g469
sg13
g503
sg36
(lp873
g1
(g507
g3
NtRp874
(dp875
g510
(lp876
g512
asg12
(tsg176
(lp877
(lp878
g515
aasg516
(lp879
(lp880
g519
aasg520
(lp881
(lp882
g870
aasg523
(lp883
I00
asg525
g526
sg527
(lp884
g529
asbasg515
I00
sbasbag1
(g462
g3
NtRp885
(dp886
g8
g1
(g9
g3
NtRp887
(dp888
g12
(tsg13
g14
sg16
g462
sg17
g18
sbsg19
S'degradation of CFP'
p889
sg41
(lp890
sg469
S'g_C'
p891
sg29
(lp892
sg472
g473
sg36
(lp893
sg52
(lp894
sg476
g477
sg34
(lp895
sg479
Nsg38
(lp896
sg481
F1
sg482
(lp897
(S'CFP'
I1
tp898
asg32
g4
sg33
I01
sg46
(lp899
sg13
g485
sg486
(lp900
sg491
F1.0000000000000001e-30
sg50
(lp901
g887
asg108
(lp902
g1
(g494
g3
NtRp903
(dp904
g497
(lp905
F9.9999999999999995e-08
aF1000
asg12
(tsg32
g885
sg499
I01
sg33
I00
sg500
I01
sg501
I00
sg502
g885
sg182
g469
sg13
g503
sg36
(lp906
g1
(g507
g3
NtRp907
(dp908
g510
(lp909
g512
asg12
(tsg176
(lp910
(lp911
g515
aasg516
(lp912
(lp913
g519
aasg520
(lp914
(lp915
g903
aasg523
(lp916
I00
asg525
g526
sg527
(lp917
g529
asbasg515
I00
sbag1
(g494
g3
NtRp918
(dp919
g497
(lp920
F9.9999999999999995e-08
aF1000
asg12
(tsg32
g885
sg499
I01
sg33
I00
sg500
I01
sg501
I00
sg502
g885
sg182
g469
sg13
g503
sg36
(lp921
g1
(g507
g3
NtRp922
(dp923
g510
(lp924
g512
asg12
(tsg176
(lp925
(lp926
g515
aasg516
(lp927
(lp928
g519
aasg520
(lp929
(lp930
g918
aasg523
(lp931
I00
asg525
g526
sg527
(lp932
g529
asbasg515
I00
sbasbag1
(g462
g3
NtRp933
(dp934
g8
g1
(g9
g3
NtRp935
(dp936
g12
(tsg13
g14
sg16
g462
sg17
g18
sbsg19
S'degradation of LacI'
p937
sg41
(lp938
sg469
S'g_L'
p939
sg29
(lp940
sg472
g473
sg36
(lp941
sg52
(lp942
sg476
g477
sg34
(lp943
sg479
Nsg38
(lp944
sg481
F1
sg482
(lp945
(S'LacI'
I1
tp946
asg32
g4
sg33
I01
sg46
(lp947
sg13
g485
sg486
(lp948
sg491
F1.0000000000000001e-30
sg50
(lp949
g935
asg108
(lp950
g1
(g494
g3
NtRp951
(dp952
g497
(lp953
F9.9999999999999995e-08
aF1000
asg12
(tsg32
g933
sg499
I01
sg33
I00
sg500
I01
sg501
I00
sg502
g933
sg182
g469
sg13
g503
sg36
(lp954
g1
(g507
g3
NtRp955
(dp956
g510
(lp957
g512
asg12
(tsg176
(lp958
(lp959
g515
aasg516
(lp960
(lp961
g519
aasg520
(lp962
(lp963
g951
aasg523
(lp964
I00
asg525
g526
sg527
(lp965
g529
asbasg515
I00
sbag1
(g494
g3
NtRp966
(dp967
g497
(lp968
F9.9999999999999995e-08
aF1000
asg12
(tsg32
g933
sg499
I01
sg33
I00
sg500
I01
sg501
I00
sg502
g933
sg182
g469
sg13
g503
sg36
(lp969
g1
(g507
g3
NtRp970
(dp971
g510
(lp972
g512
asg12
(tsg176
(lp973
(lp974
g515
aasg516
(lp975
(lp976
g519
aasg520
(lp977
(lp978
g966
aasg523
(lp979
I00
asg525
g526
sg527
(lp980
g529
asbasg515
I00
sbasbag1
(g462
g3
NtRp981
(dp982
g8
g1
(g9
g3
NtRp983
(dp984
g12
(tsg13
g14
sg16
g462
sg17
g18
sbsg19
S'degradation of LacI4'
p985
sg41
(lp986
sg469
S'g_L4'
p987
sg29
(lp988
sg472
g473
sg36
(lp989
sg52
(lp990
sg476
g477
sg34
(lp991
sg479
Nsg38
(lp992
sg481
F1
sg482
(lp993
(S'LacI4'
I1
tp994
asg32
g4
sg33
I01
sg46
(lp995
sg13
g485
sg486
(lp996
sg491
F1.0000000000000001e-30
sg50
(lp997
g983
asg108
(lp998
g1
(g494
g3
NtRp999
(dp1000
g497
(lp1001
F9.9999999999999995e-08
aF1000
asg12
(tsg32
g981
sg499
I01
sg33
I00
sg500
I01
sg501
I00
sg502
g981
sg182
g469
sg13
g503
sg36
(lp1002
g1
(g507
g3
NtRp1003
(dp1004
g510
(lp1005
g512
asg12
(tsg176
(lp1006
(lp1007
g515
aasg516
(lp1008
(lp1009
g519
aasg520
(lp1010
(lp1011
g999
aasg523
(lp1012
I00
asg525
g526
sg527
(lp1013
g529
asbasg515
I00
sbag1
(g494
g3
NtRp1014
(dp1015
g497
(lp1016
F9.9999999999999995e-08
aF1000
asg12
(tsg32
g981
sg499
I01
sg33
I00
sg500
I01
sg501
I00
sg502
g981
sg182
g469
sg13
g503
sg36
(lp1017
g1
(g507
g3
NtRp1018
(dp1019
g510
(lp1020
g512
asg12
(tsg176
(lp1021
(lp1022
g515
aasg516
(lp1023
(lp1024
g519
aasg520
(lp1025
(lp1026
g1014
aasg523
(lp1027
I00
asg525
g526
sg527
(lp1028
g529
asbasg515
I00
sbasbag1
(g462
g3
NtRp1029
(dp1030
g8
g1
(g9
g3
NtRp1031
(dp1032
g12
(tsg13
g14
sg16
g462
sg17
g18
sbsg19
S'degradation of AraC'
p1033
sg41
(lp1034
sg469
S'g_A'
p1035
sg29
(lp1036
sg472
g473
sg36
(lp1037
sg52
(lp1038
sg476
g477
sg34
(lp1039
sg479
Nsg38
(lp1040
sg481
F1
sg482
(lp1041
(S'AraC'
I1
tp1042
asg32
g4
sg33
I01
sg46
(lp1043
sg13
g485
sg486
(lp1044
sg491
F1.0000000000000001e-30
sg50
(lp1045
g1031
asg108
(lp1046
g1
(g494
g3
NtRp1047
(dp1048
g497
(lp1049
F9.9999999999999995e-08
aF1000
asg12
(tsg32
g1029
sg499
I01
sg33
I00
sg500
I01
sg501
I00
sg502
g1029
sg182
g469
sg13
g503
sg36
(lp1050
g1
(g507
g3
NtRp1051
(dp1052
g510
(lp1053
g512
asg12
(tsg176
(lp1054
(lp1055
g515
aasg516
(lp1056
(lp1057
g519
aasg520
(lp1058
(lp1059
g1047
aasg523
(lp1060
I00
asg525
g526
sg527
(lp1061
g529
asbasg515
I00
sbag1
(g494
g3
NtRp1062
(dp1063
g497
(lp1064
F9.9999999999999995e-08
aF1000
asg12
(tsg32
g1029
sg499
I01
sg33
I00
sg500
I01
sg501
I00
sg502
g1029
sg182
g469
sg13
g503
sg36
(lp1065
g1
(g507
g3
NtRp1066
(dp1067
g510
(lp1068
g512
asg12
(tsg176
(lp1069
(lp1070
g515
aasg516
(lp1071
(lp1072
g519
aasg520
(lp1073
(lp1074
g1062
aasg523
(lp1075
I00
asg525
g526
sg527
(lp1076
g529
asbasg515
I00
sbasbag1
(g462
g3
NtRp1077
(dp1078
g8
g1
(g9
g3
NtRp1079
(dp1080
g12
(tsg13
g14
sg16
g462
sg17
g18
sbsg19
S'degradation of AraC2'
p1081
sg41
(lp1082
sg469
S'g_A2'
p1083
sg29
(lp1084
sg472
g473
sg36
(lp1085
sg52
(lp1086
sg476
g477
sg34
(lp1087
sg479
Nsg38
(lp1088
sg481
F1
sg482
(lp1089
(S'AraC2'
I1
tp1090
asg32
g4
sg33
I01
sg46
(lp1091
sg13
g485
sg486
(lp1092
sg491
F1.0000000000000001e-30
sg50
(lp1093
g1079
asg108
(lp1094
g1
(g494
g3
NtRp1095
(dp1096
g497
(lp1097
F9.9999999999999995e-08
aF1000
asg12
(tsg32
g1077
sg499
I01
sg33
I00
sg500
I01
sg501
I00
sg502
g1077
sg182
g469
sg13
g503
sg36
(lp1098
g1
(g507
g3
NtRp1099
(dp1100
g510
(lp1101
g512
asg12
(tsg176
(lp1102
(lp1103
g515
aasg516
(lp1104
(lp1105
g519
aasg520
(lp1106
(lp1107
g1095
aasg523
(lp1108
I00
asg525
g526
sg527
(lp1109
g529
asbasg515
I00
sbag1
(g494
g3
NtRp1110
(dp1111
g497
(lp1112
F9.9999999999999995e-08
aF1000
asg12
(tsg32
g1077
sg499
I01
sg33
I00
sg500
I01
sg501
I00
sg502
g1077
sg182
g469
sg13
g503
sg36
(lp1113
g1
(g507
g3
NtRp1114
(dp1115
g510
(lp1116
g512
asg12
(tsg176
(lp1117
(lp1118
g515
aasg516
(lp1119
(lp1120
g519
aasg520
(lp1121
(lp1122
g1110
aasg523
(lp1123
I00
asg525
g526
sg527
(lp1124
g529
asbasg515
I00
sbasbag1
(g462
g3
NtRp1125
(dp1126
g8
g1
(g9
g3
NtRp1127
(dp1128
g12
(tsg13
g14
sg16
g462
sg17
g18
sbsg19
S'diffusion/division of GFP'
p1129
sg41
(lp1130
sg469
S'gamma_G'
p1131
sg29
(lp1132
sg472
g473
sg36
(lp1133
sg52
(lp1134
sg476
g477
sg34
(lp1135
sg479
Nsg38
(lp1136
sg481
F1
sg482
(lp1137
(S'GFP'
I1
tp1138
asg32
g4
sg33
I01
sg46
(lp1139
sg13
g485
sg486
(lp1140
sg491
F1.0000000000000001e-30
sg50
(lp1141
g1127
asg108
(lp1142
g1
(g494
g3
NtRp1143
(dp1144
g497
(lp1145
F9.9999999999999995e-08
aF1000
asg12
(tsg32
g1125
sg499
I01
sg33
I00
sg500
I01
sg501
I00
sg502
g1125
sg182
g469
sg13
g503
sg36
(lp1146
g1
(g507
g3
NtRp1147
(dp1148
g510
(lp1149
g512
asg12
(tsg176
(lp1150
(lp1151
g515
aasg516
(lp1152
(lp1153
g519
aasg520
(lp1154
(lp1155
g1143
aasg523
(lp1156
I00
asg525
g526
sg527
(lp1157
g529
asbasg515
I00
sbag1
(g494
g3
NtRp1158
(dp1159
g497
(lp1160
F9.9999999999999995e-08
aF1000
asg12
(tsg32
g1125
sg499
I01
sg33
I00
sg500
I01
sg501
I00
sg502
g1125
sg182
g469
sg13
g503
sg36
(lp1161
g1
(g507
g3
NtRp1162
(dp1163
g510
(lp1164
g512
asg12
(tsg176
(lp1165
(lp1166
g515
aasg516
(lp1167
(lp1168
g519
aasg520
(lp1169
(lp1170
g1158
aasg523
(lp1171
I00
asg525
g526
sg527
(lp1172
g529
asbasg515
I00
sbasbag1
(g462
g3
NtRp1173
(dp1174
g8
g1
(g9
g3
NtRp1175
(dp1176
g12
(tsg13
g14
sg16
g462
sg17
g18
sbsg19
S'diffusion/division of CFP'
p1177
sg41
(lp1178
sg469
S'gamma_C'
p1179
sg29
(lp1180
sg472
g473
sg36
(lp1181
sg52
(lp1182
sg476
g477
sg34
(lp1183
sg479
Nsg38
(lp1184
sg481
F1
sg482
(lp1185
(S'CFP'
I1
tp1186
asg32
g4
sg33
I01
sg46
(lp1187
sg13
g485
sg486
(lp1188
sg491
F1.0000000000000001e-30
sg50
(lp1189
g1175
asg108
(lp1190
g1
(g494
g3
NtRp1191
(dp1192
g497
(lp1193
F9.9999999999999995e-08
aF1000
asg12
(tsg32
g1173
sg499
I01
sg33
I00
sg500
I01
sg501
I00
sg502
g1173
sg182
g469
sg13
g503
sg36
(lp1194
g1
(g507
g3
NtRp1195
(dp1196
g510
(lp1197
g512
asg12
(tsg176
(lp1198
(lp1199
g515
aasg516
(lp1200
(lp1201
g519
aasg520
(lp1202
(lp1203
g1191
aasg523
(lp1204
I00
asg525
g526
sg527
(lp1205
g529
asbasg515
I00
sbag1
(g494
g3
NtRp1206
(dp1207
g497
(lp1208
F9.9999999999999995e-08
aF1000
asg12
(tsg32
g1173
sg499
I01
sg33
I00
sg500
I01
sg501
I00
sg502
g1173
sg182
g469
sg13
g503
sg36
(lp1209
g1
(g507
g3
NtRp1210
(dp1211
g510
(lp1212
g512
asg12
(tsg176
(lp1213
(lp1214
g515
aasg516
(lp1215
(lp1216
g519
aasg520
(lp1217
(lp1218
g1206
aasg523
(lp1219
I00
asg525
g526
sg527
(lp1220
g529
asbasg515
I00
sbasbag1
(g462
g3
NtRp1221
(dp1222
g8
g1
(g9
g3
NtRp1223
(dp1224
g12
(tsg13
g14
sg16
g462
sg17
g18
sbsg19
S'diffusion/division of LacI'
p1225
sg41
(lp1226
sg469
S'gamma_L'
p1227
sg29
(lp1228
sg472
g473
sg36
(lp1229
sg52
(lp1230
sg476
g477
sg34
(lp1231
sg479
Nsg38
(lp1232
sg481
F1
sg482
(lp1233
(S'LacI'
I1
tp1234
asg32
g4
sg33
I01
sg46
(lp1235
sg13
g485
sg486
(lp1236
sg491
F1.0000000000000001e-30
sg50
(lp1237
g1223
asg108
(lp1238
g1
(g494
g3
NtRp1239
(dp1240
g497
(lp1241
F9.9999999999999995e-08
aF1000
asg12
(tsg32
g1221
sg499
I01
sg33
I00
sg500
I01
sg501
I00
sg502
g1221
sg182
g469
sg13
g503
sg36
(lp1242
g1
(g507
g3
NtRp1243
(dp1244
g510
(lp1245
g512
asg12
(tsg176
(lp1246
(lp1247
g515
aasg516
(lp1248
(lp1249
g519
aasg520
(lp1250
(lp1251
g1239
aasg523
(lp1252
I00
asg525
g526
sg527
(lp1253
g529
asbasg515
I00
sbag1
(g494
g3
NtRp1254
(dp1255
g497
(lp1256
F9.9999999999999995e-08
aF1000
asg12
(tsg32
g1221
sg499
I01
sg33
I00
sg500
I01
sg501
I00
sg502
g1221
sg182
g469
sg13
g503
sg36
(lp1257
g1
(g507
g3
NtRp1258
(dp1259
g510
(lp1260
g512
asg12
(tsg176
(lp1261
(lp1262
g515
aasg516
(lp1263
(lp1264
g519
aasg520
(lp1265
(lp1266
g1254
aasg523
(lp1267
I00
asg525
g526
sg527
(lp1268
g529
asbasg515
I00
sbasbag1
(g462
g3
NtRp1269
(dp1270
g8
g1
(g9
g3
NtRp1271
(dp1272
g12
(tsg13
g14
sg16
g462
sg17
g18
sbsg19
S'diffusion/division of LacI4'
p1273
sg41
(lp1274
sg469
S'gamma_L4'
p1275
sg29
(lp1276
sg472
g473
sg36
(lp1277
sg52
(lp1278
sg476
g477
sg34
(lp1279
sg479
Nsg38
(lp1280
sg481
F1
sg482
(lp1281
(S'LacI4'
I1
tp1282
asg32
g4
sg33
I01
sg46
(lp1283
sg13
g485
sg486
(lp1284
sg491
F1.0000000000000001e-30
sg50
(lp1285
g1271
asg108
(lp1286
g1
(g494
g3
NtRp1287
(dp1288
g497
(lp1289
F9.9999999999999995e-08
aF1000
asg12
(tsg32
g1269
sg499
I01
sg33
I00
sg500
I01
sg501
I00
sg502
g1269
sg182
g469
sg13
g503
sg36
(lp1290
g1
(g507
g3
NtRp1291
(dp1292
g510
(lp1293
g512
asg12
(tsg176
(lp1294
(lp1295
g515
aasg516
(lp1296
(lp1297
g519
aasg520
(lp1298
(lp1299
g1287
aasg523
(lp1300
I00
asg525
g526
sg527
(lp1301
g529
asbasg515
I00
sbag1
(g494
g3
NtRp1302
(dp1303
g497
(lp1304
F9.9999999999999995e-08
aF1000
asg12
(tsg32
g1269
sg499
I01
sg33
I00
sg500
I01
sg501
I00
sg502
g1269
sg182
g469
sg13
g503
sg36
(lp1305
g1
(g507
g3
NtRp1306
(dp1307
g510
(lp1308
g512
asg12
(tsg176
(lp1309
(lp1310
g515
aasg516
(lp1311
(lp1312
g519
aasg520
(lp1313
(lp1314
g1302
aasg523
(lp1315
I00
asg525
g526
sg527
(lp1316
g529
asbasg515
I00
sbasbag1
(g462
g3
NtRp1317
(dp1318
g8
g1
(g9
g3
NtRp1319
(dp1320
g12
(tsg13
g14
sg16
g462
sg17
g18
sbsg19
S'diffusion/division of AraC'
p1321
sg41
(lp1322
sg469
S'gamma_A'
p1323
sg29
(lp1324
sg472
g473
sg36
(lp1325
sg52
(lp1326
sg476
g477
sg34
(lp1327
sg479
Nsg38
(lp1328
sg481
F1
sg482
(lp1329
(S'AraC'
I1
tp1330
asg32
g4
sg33
I01
sg46
(lp1331
sg13
g485
sg486
(lp1332
sg491
F1.0000000000000001e-30
sg50
(lp1333
g1319
asg108
(lp1334
g1
(g494
g3
NtRp1335
(dp1336
g497
(lp1337
F9.9999999999999995e-08
aF1000
asg12
(tsg32
g1317
sg499
I01
sg33
I00
sg500
I01
sg501
I00
sg502
g1317
sg182
g469
sg13
g503
sg36
(lp1338
g1
(g507
g3
NtRp1339
(dp1340
g510
(lp1341
g512
asg12
(tsg176
(lp1342
(lp1343
g515
aasg516
(lp1344
(lp1345
g519
aasg520
(lp1346
(lp1347
g1335
aasg523
(lp1348
I00
asg525
g526
sg527
(lp1349
g529
asbasg515
I00
sbag1
(g494
g3
NtRp1350
(dp1351
g497
(lp1352
F9.9999999999999995e-08
aF1000
asg12
(tsg32
g1317
sg499
I01
sg33
I00
sg500
I01
sg501
I00
sg502
g1317
sg182
g469
sg13
g503
sg36
(lp1353
g1
(g507
g3
NtRp1354
(dp1355
g510
(lp1356
g512
asg12
(tsg176
(lp1357
(lp1358
g515
aasg516
(lp1359
(lp1360
g519
aasg520
(lp1361
(lp1362
g1350
aasg523
(lp1363
I00
asg525
g526
sg527
(lp1364
g529
asbasg515
I00
sbasbag1
(g462
g3
NtRp1365
(dp1366
g8
g1
(g9
g3
NtRp1367
(dp1368
g12
(tsg13
g14
sg16
g462
sg17
g18
sbsg19
S'diffusion/division of AraC2'
p1369
sg41
(lp1370
sg469
S'gamma_A2'
p1371
sg29
(lp1372
sg472
g473
sg36
(lp1373
sg52
(lp1374
sg476
g477
sg34
(lp1375
sg479
Nsg38
(lp1376
sg481
F1
sg482
(lp1377
(S'AraC2'
I1
tp1378
asg32
g4
sg33
I01
sg46
(lp1379
sg13
g485
sg486
(lp1380
sg491
F1.0000000000000001e-30
sg50
(lp1381
g1367
asg108
(lp1382
g1
(g494
g3
NtRp1383
(dp1384
g497
(lp1385
F9.9999999999999995e-08
aF1000
asg12
(tsg32
g1365
sg499
I01
sg33
I00
sg500
I01
sg501
I00
sg502
g1365
sg182
g469
sg13
g503
sg36
(lp1386
g1
(g507
g3
NtRp1387
(dp1388
g510
(lp1389
g512
asg12
(tsg176
(lp1390
(lp1391
g515
aasg516
(lp1392
(lp1393
g519
aasg520
(lp1394
(lp1395
g1383
aasg523
(lp1396
I00
asg525
g526
sg527
(lp1397
g529
asbasg515
I00
sbag1
(g494
g3
NtRp1398
(dp1399
g497
(lp1400
F9.9999999999999995e-08
aF1000
asg12
(tsg32
g1365
sg499
I01
sg33
I00
sg500
I01
sg501
I00
sg502
g1365
sg182
g469
sg13
g503
sg36
(lp1401
g1
(g507
g3
NtRp1402
(dp1403
g510
(lp1404
g512
asg12
(tsg176
(lp1405
(lp1406
g515
aasg516
(lp1407
(lp1408
g519
aasg520
(lp1409
(lp1410
g1398
aasg523
(lp1411
I00
asg525
g526
sg527
(lp1412
g529
asbasg515
I00
sbasbasS'functions'
p1413
(dp1414
g152
g1
(clibs.modules.libchemicallite
function_cont
p1415
g3
NtRp1416
(dp1417
g8
g1
(g9
g3
NtRp1418
(dp1419
g12
(tsg13
g14
sg16
g1415
sg17
g18
sbsg19
g152
sg29
(lp1420
sg32
g4
sg33
I01
sg38
(lp1421
sg36
(lp1422
sg41
(lp1423
sg46
(lp1424
sS'brand_new'
p1425
I00
sg34
(lp1426
sg50
(lp1427
g1418
asS'func_statement'
p1428
Vpwm_square(AHL_pwm:AHL_pwm_tau)
p1429
sg52
(lp1430
sbsg153
g1
(g1415
g3
NtRp1431
(dp1432
g8
g1
(g9
g3
NtRp1433
(dp1434
g12
(tsg13
g14
sg16
g1415
sg17
g18
sbsg19
g153
sg29
(lp1435
sg32
Nsg33
I01
sg38
(lp1436
sg36
(lp1437
sg41
(lp1438
sg46
(lp1439
sg1425
I00
sg34
(lp1440
sg50
(lp1441
g1433
asg1428
S'mu * kappa_L4 / (k_mu + (GFP * kappa_G) + (CFP * kappa_C) + (LacI * kappa_L) + (AraC * kappa_A) + (AraC * kappa_A2) + (LacI4 * kappa_L4))'
p1442
sg52
(lp1443
sbsg154
g1
(g1415
g3
NtRp1444
(dp1445
g8
g1
(g9
g3
NtRp1446
(dp1447
g12
(tsg13
g14
sg16
g1415
sg17
g18
sbsg19
g154
sg29
(lp1448
sg32
Nsg33
I01
sg38
(lp1449
sg36
(lp1450
sg41
(lp1451
sg46
(lp1452
sg1425
I00
sg34
(lp1453
sg50
(lp1454
g1446
asg1428
S'mu * kappa_A / (k_mu + (GFP * kappa_G) + (CFP * kappa_C) + (LacI * kappa_L) + (AraC * kappa_A) + (AraC * kappa_A2) + (LacI4 * kappa_L4))'
p1455
sg52
(lp1456
sbsg155
g1
(g1415
g3
NtRp1457
(dp1458
g8
g1
(g9
g3
NtRp1459
(dp1460
g12
(tsg13
g14
sg16
g1415
sg17
g18
sbsg19
g155
sg29
(lp1461
sg32
Nsg33
I01
sg38
(lp1462
sg36
(lp1463
sg41
(lp1464
sg46
(lp1465
sg1425
I00
sg34
(lp1466
sg50
(lp1467
g1459
asg1428
S'mu * kappa_A2 / (k_mu + (GFP * kappa_G) + (CFP * kappa_C) + (LacI * kappa_L) + (AraC * kappa_A) + (AraC * kappa_A2) + (LacI4 * kappa_L4))'
p1468
sg52
(lp1469
sbsg156
g1
(g1415
g3
NtRp1470
(dp1471
g8
g1
(g9
g3
NtRp1472
(dp1473
g12
(tsg13
g14
sg16
g1415
sg17
g18
sbsg19
g156
sg29
(lp1474
sg32
Nsg33
I01
sg38
(lp1475
sg36
(lp1476
sg41
(lp1477
sg46
(lp1478
sg1425
I00
sg34
(lp1479
sg50
(lp1480
g1472
asg1428
S'mu * kappa_L / (k_mu + (GFP * kappa_G) + (CFP * kappa_C) + (LacI * kappa_L) + (AraC * kappa_A) + (AraC * kappa_A2) + (LacI4 * kappa_L4))'
p1481
sg52
(lp1482
sbsg157
g1
(g1415
g3
NtRp1483
(dp1484
g8
g1
(g9
g3
NtRp1485
(dp1486
g12
(tsg13
g14
sg16
g1415
sg17
g18
sbsg19
g157
sg29
(lp1487
sg32
Nsg33
I01
sg38
(lp1488
sg36
(lp1489
sg41
(lp1490
sg46
(lp1491
sg1425
I00
sg34
(lp1492
sg50
(lp1493
g1485
asg1428
S'alpha_CA * ((pwm_square(AHL_pwm:AHL_pwm_tau)**2)/((k_A**2) + (pwm_square(AHL_pwm:AHL_pwm_tau)**2)))'
p1494
sg52
(lp1495
sbsg158
g1
(g1415
g3
NtRp1496
(dp1497
g8
g1
(g9
g3
NtRp1498
(dp1499
g12
(tsg13
g14
sg16
g1415
sg17
g18
sbsg19
g158
sg29
(lp1500
sg32
Nsg33
I01
sg38
(lp1501
sg36
(lp1502
sg41
(lp1503
sg46
(lp1504
sg1425
I00
sg34
(lp1505
sg50
(lp1506
g1498
asg1428
S'mu * kappa_G / (k_mu + (GFP * kappa_G) + (CFP * kappa_C) + (LacI * kappa_L) + (AraC * kappa_A) + (AraC * kappa_A2) + (LacI4 * kappa_L4))'
p1507
sg52
(lp1508
sbsg159
g1
(g1415
g3
NtRp1509
(dp1510
g8
g1
(g9
g3
NtRp1511
(dp1512
g12
(tsg13
g14
sg16
g1415
sg17
g18
sbsg19
g159
sg29
(lp1513
sg32
Nsg33
I01
sg38
(lp1514
sg36
(lp1515
sg41
(lp1516
sg46
(lp1517
sg1425
I00
sg34
(lp1518
sg50
(lp1519
g1511
asg1428
S'alpha_GLA * ((k_L**2)/((k_L**2) + (LacI4**2))) * (AraC2/(k_A + AraC2))'
p1520
sg52
(lp1521
sbsg160
g1
(g1415
g3
NtRp1522
(dp1523
g8
g1
(g9
g3
NtRp1524
(dp1525
g12
(tsg13
g14
sg16
g1415
sg17
g18
sbsg19
g160
sg29
(lp1526
sg32
Nsg33
I01
sg38
(lp1527
sg36
(lp1528
sg41
(lp1529
sg46
(lp1530
sg1425
I00
sg34
(lp1531
sg50
(lp1532
g1524
asg1428
S'mu * kappa_C / (k_mu + (GFP * kappa_G) + (CFP * kappa_C) + (LacI * kappa_L) + (AraC * kappa_A) + (AraC * kappa_A2) + (LacI4 * kappa_L4))'
p1533
sg52
(lp1534
sbssg116
(lp1535
S'time'
p1536
aS'fixed_time'
p1537
ag157
ag159
ag401
ag402
ag403
ag404
ag405
ag406
ag152
asg68
g69
sS'variables'
p1538
(dp1539
g127
g1
(clibs.modules.libchemicallite
variable
p1540
g3
NtRp1541
(dp1542
g8
g1
(g9
g3
NtRp1543
(dp1544
g12
(tsg13
g14
sg16
g1540
sg17
g18
sbsg19
g127
sg29
(lp1545
sg32
g4
sg33
I01
sS'value'
p1546
S'0.001'
p1547
sg36
(lp1548
sg41
(lp1549
sg38
(lp1550
sg46
(lp1551
sg1425
I00
sg34
(lp1552
sg50
(lp1553
g1543
asg52
(lp1554
sbsg128
g1
(g1540
g3
NtRp1555
(dp1556
g8
g1
(g9
g3
NtRp1557
(dp1558
g12
(tsg13
g14
sg16
g1540
sg17
g18
sbsg19
g128
sg29
(lp1559
sg32
g4
sg33
I01
sg1546
S'0.0001'
p1560
sg36
(lp1561
sg41
(lp1562
sg38
(lp1563
sg46
(lp1564
sg1425
I00
sg34
(lp1565
sg50
(lp1566
g1557
asg52
(lp1567
sbsg129
g1
(g1540
g3
NtRp1568
(dp1569
g8
g1
(g9
g3
NtRp1570
(dp1571
g12
(tsg13
g14
sg16
g1540
sg17
g18
sbsg19
g129
sg29
(lp1572
sg32
g4
sg33
I01
sg1546
S'0.001'
p1573
sg36
(lp1574
sg41
(lp1575
sg38
(lp1576
sg46
(lp1577
sg1425
I00
sg34
(lp1578
sg50
(lp1579
g1570
asg52
(lp1580
sbsg130
g1
(g1540
g3
NtRp1581
(dp1582
g8
g1
(g9
g3
NtRp1583
(dp1584
g12
(tsg13
g14
sg16
g1540
sg17
g18
sbsg19
g130
sg29
(lp1585
sg32
g4
sg33
I01
sg1546
S'0.001'
p1586
sg36
(lp1587
sg41
(lp1588
sg38
(lp1589
sg46
(lp1590
sg1425
I00
sg34
(lp1591
sg50
(lp1592
g1583
asg52
(lp1593
sbsg131
g1
(g1540
g3
NtRp1594
(dp1595
g8
g1
(g9
g3
NtRp1596
(dp1597
g12
(tsg13
g14
sg16
g1540
sg17
g18
sbsg19
g131
sg29
(lp1598
sg32
g4
sg33
I01
sg1546
S'0.001'
p1599
sg36
(lp1600
sg41
(lp1601
sg38
(lp1602
sg46
(lp1603
sg1425
I00
sg34
(lp1604
sg50
(lp1605
g1596
asg52
(lp1606
sbsg132
g1
(g1540
g3
NtRp1607
(dp1608
g8
g1
(g9
g3
NtRp1609
(dp1610
g12
(tsg13
g14
sg16
g1540
sg17
g18
sbsg19
g132
sg29
(lp1611
sg32
g4
sg33
I01
sg1546
S'0.002'
p1612
sg36
(lp1613
sg41
(lp1614
sg38
(lp1615
sg46
(lp1616
sg1425
I00
sg34
(lp1617
sg50
(lp1618
g1609
asg52
(lp1619
sbsg133
g1
(g1540
g3
NtRp1620
(dp1621
g8
g1
(g9
g3
NtRp1622
(dp1623
g12
(tsg13
g14
sg16
g1540
sg17
g18
sbsg19
g133
sg29
(lp1624
sg32
g4
sg33
I01
sg1546
S'0.1'
p1625
sg36
(lp1626
sg41
(lp1627
sg38
(lp1628
sg46
(lp1629
sg1425
I00
sg34
(lp1630
sg50
(lp1631
g1622
asg52
(lp1632
sbsg134
g1
(g1540
g3
NtRp1633
(dp1634
g8
g1
(g9
g3
NtRp1635
(dp1636
g12
(tsg13
g14
sg16
g1540
sg17
g18
sbsg19
g134
sg29
(lp1637
sg32
g4
sg33
I01
sg1546
S'1.0'
p1638
sg36
(lp1639
sg41
(lp1640
sg38
(lp1641
sg46
(lp1642
sg1425
I00
sg34
(lp1643
sg50
(lp1644
g1635
asg52
(lp1645
sbsg135
g1
(g1540
g3
NtRp1646
(dp1647
g8
g1
(g9
g3
NtRp1648
(dp1649
g12
(tsg13
g14
sg16
g1540
sg17
g18
sbsg19
g135
sg29
(lp1650
sg32
g4
sg33
I01
sg1546
S'0.0001'
p1651
sg36
(lp1652
sg41
(lp1653
sg38
(lp1654
sg46
(lp1655
sg1425
I00
sg34
(lp1656
sg50
(lp1657
g1648
asg52
(lp1658
sbsg136
g1
(g1540
g3
NtRp1659
(dp1660
g8
g1
(g9
g3
NtRp1661
(dp1662
g12
(tsg13
g14
sg16
g1540
sg17
g18
sbsg19
g136
sg29
(lp1663
sg32
g4
sg33
I01
sg1546
S'1.0'
p1664
sg36
(lp1665
sg41
(lp1666
sg38
(lp1667
sg46
(lp1668
sg1425
I00
sg34
(lp1669
sg50
(lp1670
g1661
asg52
(lp1671
sbsg137
g1
(g1540
g3
NtRp1672
(dp1673
g8
g1
(g9
g3
NtRp1674
(dp1675
g12
(tsg13
g14
sg16
g1540
sg17
g18
sbsg19
g137
sg29
(lp1676
sg32
g4
sg33
I01
sg1546
S'0.0001'
p1677
sg36
(lp1678
sg41
(lp1679
sg38
(lp1680
sg46
(lp1681
sg1425
I00
sg34
(lp1682
sg50
(lp1683
g1674
asg52
(lp1684
sbsg138
g1
(g1540
g3
NtRp1685
(dp1686
g8
g1
(g9
g3
NtRp1687
(dp1688
g12
(tsg13
g14
sg16
g1540
sg17
g18
sbsg19
g138
sg29
(lp1689
sg32
g4
sg33
I01
sg1546
S'0.001'
p1690
sg36
(lp1691
sg41
(lp1692
sg38
(lp1693
sg46
(lp1694
sg1425
I00
sg34
(lp1695
sg50
(lp1696
g1687
asg52
(lp1697
sbsg139
g1
(g1540
g3
NtRp1698
(dp1699
g8
g1
(g9
g3
NtRp1700
(dp1701
g12
(tsg13
g14
sg16
g1540
sg17
g18
sbsg19
g139
sg29
(lp1702
sg32
g4
sg33
I01
sg1546
S'10.0'
p1703
sg36
(lp1704
sg41
(lp1705
sg38
(lp1706
sg46
(lp1707
sg1425
I00
sg34
(lp1708
sg50
(lp1709
g1700
asg52
(lp1710
sbsg140
g1
(g1540
g3
NtRp1711
(dp1712
g8
g1
(g9
g3
NtRp1713
(dp1714
g12
(tsg13
g14
sg16
g1540
sg17
g18
sbsg19
g140
sg29
(lp1715
sg32
g4
sg33
I01
sg1546
F30
sg36
(lp1716
sg41
(lp1717
sg38
(lp1718
sg46
(lp1719
sg1425
I00
sg34
(lp1720
sg50
(lp1721
g1713
asg52
(lp1722
sbsg141
g1
(g1540
g3
NtRp1723
(dp1724
g8
g1
(g9
g3
NtRp1725
(dp1726
g12
(tsg13
g14
sg16
g1540
sg17
g18
sbsg19
g141
sg29
(lp1727
sg32
g4
sg33
I01
sg1546
S'0.0001'
p1728
sg36
(lp1729
sg41
(lp1730
sg38
(lp1731
sg46
(lp1732
sg1425
I00
sg34
(lp1733
sg50
(lp1734
g1725
asg52
(lp1735
sbsg142
g1
(g1540
g3
NtRp1736
(dp1737
g8
g1
(g9
g3
NtRp1738
(dp1739
g12
(tsg13
g14
sg16
g1540
sg17
g18
sbsg19
g142
sg29
(lp1740
sg32
g4
sg33
I01
sg1546
S'1.0'
p1741
sg36
(lp1742
sg41
(lp1743
sg38
(lp1744
sg46
(lp1745
sg1425
I00
sg34
(lp1746
sg50
(lp1747
g1738
asg52
(lp1748
sbsg143
g1
(g1540
g3
NtRp1749
(dp1750
g8
g1
(g9
g3
NtRp1751
(dp1752
g12
(tsg13
g14
sg16
g1540
sg17
g18
sbsg19
g143
sg29
(lp1753
sg32
g4
sg33
I01
sg1546
S'1.0'
p1754
sg36
(lp1755
sg41
(lp1756
sg38
(lp1757
sg46
(lp1758
sg1425
I00
sg34
(lp1759
sg50
(lp1760
g1751
asg52
(lp1761
sbsg144
g1
(g1540
g3
NtRp1762
(dp1763
g8
g1
(g9
g3
NtRp1764
(dp1765
g12
(tsg13
g14
sg16
g1540
sg17
g18
sbsg19
g144
sg29
(lp1766
sg32
g4
sg33
I01
sg1546
S'0.001'
p1767
sg36
(lp1768
sg41
(lp1769
sg38
(lp1770
sg46
(lp1771
sg1425
I00
sg34
(lp1772
sg50
(lp1773
g1764
asg52
(lp1774
sbsg145
g1
(g1540
g3
NtRp1775
(dp1776
g8
g1
(g9
g3
NtRp1777
(dp1778
g12
(tsg13
g14
sg16
g1540
sg17
g18
sbsg19
g145
sg29
(lp1779
sg32
g4
sg33
I01
sg1546
S'1.0'
p1780
sg36
(lp1781
sg41
(lp1782
sg38
(lp1783
sg46
(lp1784
sg1425
I00
sg34
(lp1785
sg50
(lp1786
g1777
asg52
(lp1787
sbsg146
g1
(g1540
g3
NtRp1788
(dp1789
g8
g1
(g9
g3
NtRp1790
(dp1791
g12
(tsg13
g14
sg16
g1540
sg17
g18
sbsg19
g146
sg29
(lp1792
sg32
g4
sg33
I01
sg1546
S'10.0'
p1793
sg36
(lp1794
sg41
(lp1795
sg38
(lp1796
sg46
(lp1797
sg1425
I00
sg34
(lp1798
sg50
(lp1799
g1790
asg52
(lp1800
sbsg147
g1
(g1540
g3
NtRp1801
(dp1802
g8
g1
(g9
g3
NtRp1803
(dp1804
g12
(tsg13
g14
sg16
g1540
sg17
g18
sbsg19
g147
sg29
(lp1805
sg32
g4
sg33
I01
sg1546
S'1.0'
p1806
sg36
(lp1807
sg41
(lp1808
sg38
(lp1809
sg46
(lp1810
sg1425
I00
sg34
(lp1811
sg50
(lp1812
g1803
asg52
(lp1813
sbsg148
g1
(g1540
g3
NtRp1814
(dp1815
g8
g1
(g9
g3
NtRp1816
(dp1817
g12
(tsg13
g14
sg16
g1540
sg17
g18
sbsg19
g148
sg29
(lp1818
sg32
g4
sg33
I01
sg1546
S'1.0'
p1819
sg36
(lp1820
sg41
(lp1821
sg38
(lp1822
sg46
(lp1823
sg1425
I00
sg34
(lp1824
sg50
(lp1825
g1816
asg52
(lp1826
sbsg149
g1
(g1540
g3
NtRp1827
(dp1828
g8
g1
(g9
g3
NtRp1829
(dp1830
g12
(tsg13
g14
sg16
g1540
sg17
g18
sbsg19
g149
sg29
(lp1831
sg32
g4
sg33
I01
sg1546
S'0.2'
p1832
sg36
(lp1833
sg41
(lp1834
sg38
(lp1835
sg46
(lp1836
sg1425
I00
sg34
(lp1837
sg50
(lp1838
g1829
asg52
(lp1839
sbsg150
g1
(g1540
g3
NtRp1840
(dp1841
g8
g1
(g9
g3
NtRp1842
(dp1843
g12
(tsg13
g14
sg16
g1540
sg17
g18
sbsg19
g150
sg29
(lp1844
sg32
g4
sg33
I01
sg1546
S'1.0'
p1845
sg36
(lp1846
sg41
(lp1847
sg38
(lp1848
sg46
(lp1849
sg1425
I00
sg34
(lp1850
sg50
(lp1851
g1842
asg52
(lp1852
sbsg151
g1
(g1540
g3
NtRp1853
(dp1854
g8
g1
(g9
g3
NtRp1855
(dp1856
g12
(tsg13
g14
sg16
g1540
sg17
g18
sbsg19
g151
sg29
(lp1857
sg32
g4
sg33
I01
sg1546
S'1.0'
p1858
sg36
(lp1859
sg41
(lp1860
sg38
(lp1861
sg46
(lp1862
sg1425
I00
sg34
(lp1863
sg50
(lp1864
g1855
asg52
(lp1865
sbssg166
g167
sg254
NsS'bool_expressions'
p1866
g1
(g5
g6
(dp1867
g254
NsS'capt'
p1868
S''
sS'end'
p1869
S''
stRp1870
g1870
bsS'species'
p1871
(dp1872
g401
g1
(clibs.modules.libchemicallite
species
p1873
g3
NtRp1874
(dp1875
g8
g1
(g9
g3
NtRp1876
(dp1877
g12
(tsg13
g14
sg16
g1873
sg17
g18
sbsg19
g401
sS'current_count'
p1878
I20
sg29
(lp1879
sS'initial_count'
p1880
I20
sg32
g4
sg33
I01
sg13
(lp1881
g40
ag1880
asg479
Nsg38
(lp1882
sg36
(lp1883
sg41
(lp1884
sg46
(lp1885
sg1425
I00
sg34
(lp1886
sg50
(lp1887
g1876
asg52
(lp1888
sbsg402
g1
(g1873
g3
NtRp1889
(dp1890
g8
g1
(g9
g3
NtRp1891
(dp1892
g12
(tsg13
g14
sg16
g1873
sg17
g18
sbsg19
g402
sg1878
I1
sg29
(lp1893
sg1880
I1
sg32
g4
sg33
I01
sg13
g1881
sg479
Nsg38
(lp1894
sg36
(lp1895
sg41
(lp1896
sg46
(lp1897
sg1425
I00
sg34
(lp1898
sg50
(lp1899
g1891
asg52
(lp1900
sbsg403
g1
(g1873
g3
NtRp1901
(dp1902
g8
g1
(g9
g3
NtRp1903
(dp1904
g12
(tsg13
g14
sg16
g1873
sg17
g18
sbsg19
g403
sg1878
I10
sg29
(lp1905
sg1880
I10
sg32
g4
sg33
I01
sg13
g1881
sg479
Nsg38
(lp1906
sg36
(lp1907
sg41
(lp1908
sg46
(lp1909
sg1425
I00
sg34
(lp1910
sg50
(lp1911
g1903
asg52
(lp1912
sbsg404
g1
(g1873
g3
NtRp1913
(dp1914
g8
g1
(g9
g3
NtRp1915
(dp1916
g12
(tsg13
g14
sg16
g1873
sg17
g18
sbsg19
g404
sg1878
I50
sg29
(lp1917
sg1880
I50
sg32
g4
sg33
I01
sg13
g1881
sg479
Nsg38
(lp1918
sg36
(lp1919
sg41
(lp1920
sg46
(lp1921
sg1425
I00
sg34
(lp1922
sg50
(lp1923
g1915
asg52
(lp1924
sbsg405
g1
(g1873
g3
NtRp1925
(dp1926
g8
g1
(g9
g3
NtRp1927
(dp1928
g12
(tsg13
g14
sg16
g1873
sg17
g18
sbsg19
g405
sg1878
I1
sg29
(lp1929
sg1880
I1
sg32
g4
sg33
I01
sg13
g1881
sg479
Nsg38
(lp1930
sg36
(lp1931
sg41
(lp1932
sg46
(lp1933
sg1425
I00
sg34
(lp1934
sg50
(lp1935
g1927
asg52
(lp1936
sbsg406
g1
(g1873
g3
NtRp1937
(dp1938
g8
g1
(g9
g3
NtRp1939
(dp1940
g12
(tsg13
g14
sg16
g1873
sg17
g18
sbsg19
g406
sg1878
I10
sg29
(lp1941
sg1880
I10
sg32
g4
sg33
I01
sg13
g1881
sg479
Nsg38
(lp1942
sg36
(lp1943
sg41
(lp1944
sg46
(lp1945
sg1425
I00
sg34
(lp1946
sg50
(lp1947
g1939
asg52
(lp1948
sbsstRp1949
g1949
bsg34
(lp1950
sg50
(lp1951
g444
asg52
(lp1952
sbsg38
(lp1953
sg40
g20
sg254
NsS'run_params'
p1954
g1
(g5
g6
(dp1955
g460
g461
sg1413
g1414
sg116
g1535
sg68
g69
sg1538
g1539
sg432
(dp1956
g479
g1949
sS'template owners'
p1957
g1
(g5
g6
(dp1958
g254
Nsg460
g461
sg1538
g1539
sg1413
g1414
sg1871
g1872
stRp1959
g1959
bssg166
g167
sS'multiprocessing'
p1960
Nsg254
g4
sS'output_plans'
p1961
(dp1962
g242
g238
ssg1866
g1870
sg44
g45
sS'p_space_map'
p1963
Nsg1871
(dp1964
g121
g1874
sg122
g1889
sg123
g1901
sg124
g1913
sg125
g1925
sg126
g1937
ssS'fit_routines'
p1965
(lp1966
stRp1967
g1967
bsg377
g378
sS'data_pool_descr'
p1968
S'Data Pool Holds 1 Simulation Trajectories and 0 Post Process Pools'
p1969
sS'mcfg_dir'
p1970
S'C:\\Users\\bartl_000\\Desktop\\Work\\Modular\\chemicallite'
p1971
sS'use_color_plot'
p1972
I00
sg29
(lp1973
sS'treebook_memory'
p1974
(lp1975
I3
a(lp1976
I9
aI1
aI8
aasg32
Nsg33
I01
sS'use_line_plot'
p1977
I01
sS'cancel_make'
p1978
I00
sg46
(lp1979
sS'data_pool'
p1980
(lp1981
sg375
g376
sS'data_pool_pkl'
p1982
S'C:\\Users\\bartl_000\\Desktop\\Work\\Modular\\data_pools\\data_pool.1393741527.17.pkl'
p1983
sS'fitting_plan'
p1984
g1
(clibs.modular_core.libfitroutine
fit_routine_plan
p1985
g3
NtRp1986
(dp1987
g8
g1
(g9
g3
NtRp1988
(dp1989
g12
(tsg13
g14
sg16
g1985
sg17
g18
sbsg19
S'fit routine plan'
p1990
sg29
(lp1991
sg31
I00
sg32
g4
sg33
I01
sS'routines'
p1992
g1966
sS'selected_routine'
p1993
Nsg36
(lp1994
sg41
(lp1995
sg38
(lp1996
sg46
(lp1997
sg34
(lp1998
sg50
(lp1999
g1988
asg52
(lp2000
sbsg432
(dp2001
S'template owners'
p2002
g1
(g5
g6
(dp2003
g236
g238
sg22
g24
sg58
g60
sg254
Nsg1954
g1967
sg440
g442
sg195
g197
sg1984
g1986
stRp2004
g2004
bssS'_make_rxn_'
p2005
Nsg34
(lp2006
sS'mcfg_text_box_ref'
p2007
Nsg50
(lp2008
g10
asg108
(lp2009
g60
ag238
ag1986
ag442
ag24
ag197
ag463
ag545
ag594
ag643
ag692
ag741
ag789
ag837
ag885
ag933
ag981
ag1029
ag1077
ag1125
ag1173
ag1221
ag1269
ag1317
ag1365
ag1416
astRp2010
g2010
bb.