ccopy_reg
_reconstructor
p1
(clibs.modular_core.libsimcomponents
ensemble
p2
c__builtin__
object
p3
NtRp4
g1
(clibs.modular_core.libfundamental
dictionary
p5
c__builtin__
dict
p6
(dp7
S'base_class'
p8
g1
(clibs.modular_core.libfundamental
interface_template_class
p9
g3
NtRp10
(dp11
S'args'
p12
(tsS'visible_attributes'
p13
(lp14
S'base_tag'
p15
asS'_class'
p16
g2
sS'_tag'
p17
S'__modu_object__'
p18
sbsS'_label'
p19
VQEntrain
p20
sS'_make_spec_'
p21
NsS'postprocess_plan'
p22
g1
(clibs.modular_core.libpostprocess
post_process_plan
p23
g3
NtRp24
g1
(g5
g6
(dp25
g8
g1
(g9
g3
NtRp26
(dp27
g12
(tsg13
g14
sg16
g23
sg17
g18
sbsg19
S'Post Process Plan'
p28
sS'parameter_space_templates'
p29
(lp30
sS'parent'
p31
g4
sS'rewidget_'
p32
I01
sS'tool_templates'
p33
(lp34
sS'post_processes'
p35
(lp36
g1
(clibs.modular_core.libpostprocess
post_process_correlation_values
p37
g3
NtRp38
g1
(g5
g6
(dp39
g8
g1
(g9
g3
NtRp40
(dp41
g12
(tsg13
g14
sg16
g37
sg17
S'correlation'
p42
sbsg19
Vcorrelations
p43
sS'ordered'
p44
I01
sS'y_title'
p45
S'y-title'
p46
sS'valid_inputs'
p47
(lp48
S'simulation'
p49
asg33
(lp50
sS'function_of'
p51
S'time'
p52
sS'target_2'
p53
S'GFP'
p54
sS'target_1'
p55
S'CFP'
p56
sS'widg_templates'
p57
(lp58
sS'regime'
p59
S'all trajectories'
p60
sS'x_title'
p61
S'x-title'
p62
sS'title'
p63
g63
sS'visible_attributes'
p64
(lp65
S'label'
p66
asS'bin_count'
p67
I100
sS'_handles_'
p68
(lp69
sg66
g43
sS'_parent'
p70
NsS'menu_templates'
p71
(lp72
sS'input_regime'
p73
(lp74
S'simulation'
p75
asS'use_color_plot'
p76
I00
sg29
(lp77
sg31
g24
sg32
I01
sS'mean_of'
p78
g52
sS'target_list'
p79
(lp80
g52
aS'time mean'
p81
aS'time median'
p82
aS'time variance'
p83
aS'1 stddev of time'
p84
aS'time +1 stddev'
p85
aS'time -1 stddev'
p86
aS'time coefficient of variation'
p87
asS'widg_dialog_templates'
p88
(lp89
sS'brand_new'
p90
I00
sS'data'
p91
(lp92
sS'use_line_plot'
p93
I01
sS'fill_value'
p94
F-100
sS'mp_plan_ref'
p95
g1
(clibs.modular_core.libmultiprocess
multiprocess_plan
p96
g3
NtRp97
g1
(g5
g6
(dp98
g8
g1
(g9
g3
NtRp99
(dp100
g12
(tsg13
g14
sg16
g96
sg17
g18
sbsg19
S'multiprocess plan'
p101
sg29
(lp102
sg31
g4
sg32
I01
sS'worker_count'
p103
I16
sg33
(lp104
sS'worker_report'
p105
(lp106
S'location dex: 1 runs this round: 1 in: 1.49700021744 seconds'
p107
asg88
(lp108
sg91
(lp109
sg57
(lp110
sg71
(lp111
sS'use_plan'
p112
I00
sg68
(lp113
sg70
NsS'gpu_worker'
p114
(ilibs.gpu.lib_gpu
CL
p115
(dp116
S'gpu_cl_extensions'
p117
(dp118
S'addition'
p119
S'C:\\Users\\bartl_000\\Desktop\\Work\\Modular\\libs\\gpu\\lib_gpu1to1addition.cl'
p120
sS'multiplication'
p121
S'C:\\Users\\bartl_000\\Desktop\\Work\\Modular\\libs\\gpu\\lib_gpu1to1multiplication.cl'
p122
sS'subtraction'
p123
S'C:\\Users\\bartl_000\\Desktop\\Work\\Modular\\libs\\gpu\\lib_gpu1to1subtraction.cl'
p124
sS'division'
p125
S'C:\\Users\\bartl_000\\Desktop\\Work\\Modular\\libs\\gpu\\lib_gpu1to1division.cl'
p126
ssbsS'valid_base_classes'
p127
(lp128
g99
astRp129
g129
bbsS'valid_regimes'
p130
(lp131
S'all trajectories'
p132
aS'by parameter space map'
p133
asS'capture_targets'
p134
(lp135
g52
aS'correlation coefficients'
p136
aS'correlation p-value'
p137
asS'output'
p138
g1
(clibs.modular_core.liboutput
output_plan
p139
g3
NtRp140
g1
(g5
g6
(dp141
g8
g1
(g9
g3
NtRp142
(dp143
g12
(tsg13
g14
sg16
g139
sg17
g18
sbsg19
Vcorrelations output
p144
sS'default_paths_vtk'
p145
I01
sS'default_targets_txt'
p146
I01
sg33
(lp147
sS'save_directory'
p148
VC:\u005cUsers\u005cbartl_000\u005cDesktop\u005cWork\u005cModular\u005cchemicallite\u005coutput
p149
sS'output_pkl'
p150
I00
sg71
(lp151
sS'default_targets_vtk'
p152
I01
sg91
(lp153
sg68
(lp154
sg57
(lp155
sg70
NsS'default_targets_plt'
p156
I01
sS'writers'
p157
(lp158
g1
(clibs.modular_core.liboutput
writer_vtk
p159
g3
NtRp160
g1
(g5
g6
(dp161
g8
g1
(g9
g3
NtRp162
(dp163
g12
(tsg13
g14
sg16
g159
sg17
S'vtk writer object'
p164
sbsg19
S'mobj__'
p165
sg29
(lp166
sg31
g140
sg32
I01
sS'filenames'
p167
(lp168
sg33
(lp169
sg88
(lp170
sg91
(lp171
sg57
(lp172
sg71
(lp173
sg64
(lp174
S'label'
p175
aS'base_class'
p176
aS'filenames'
p177
aS'iteration_resolution'
p178
asS'axes_manager'
p179
g1
(clibs.modular_core.liboutput
plot_axes_manager
p180
g3
NtRp181
g1
(g5
g6
(dp182
g8
g1
(g9
g3
NtRp183
(dp184
g12
(tsg13
g14
sg16
g180
sg17
g18
sbsg19
g165
sg29
(lp185
sg31
g160
sg32
I00
sg88
(lp186
sg68
(lp187
sg127
(lp188
g183
asg33
(lp189
sg70
NsS'_children_'
p190
(lp191
sg91
(lp192
sg57
(lp193
sg71
(lp194
stRp195
g195
bbsg68
(lp196
sg70
NsS'iteration_resolution'
p197
I1
sg127
(lp198
g1
(g9
g3
NtRp199
(dp200
g12
(tsg13
g14
sg16
g159
sg17
S'vtk'
p201
sbag1
(g9
g3
NtRp202
(dp203
g12
(tsg13
g14
sg16
clibs.modular_core.liboutput
writer_pkl
p204
sg17
S'pickle'
p205
sbag1
(g9
g3
NtRp206
(dp207
g12
(tsg13
g14
sg16
clibs.modular_core.liboutput
writer_txt
p208
sg17
S'text'
p209
sbag1
(g9
g3
NtRp210
(dp211
g12
(tsg13
g14
sg16
clibs.modular_core.liboutput
writer_plt
p212
sg17
S'plot'
p213
sbasg190
(lp214
g181
astRp215
g215
bbag1
(g204
g3
NtRp216
g1
(g5
g6
(dp217
g8
g1
(g9
g3
NtRp218
(dp219
g12
(tsg13
g14
sg16
g204
sg17
S'pkl writer object'
p220
sbsg19
g165
sg29
(lp221
sg31
g140
sg32
I01
sg167
g168
sg33
(lp222
sg88
(lp223
sg91
(lp224
sg57
(lp225
sg71
(lp226
sg64
(lp227
g175
ag176
ag177
asg179
g1
(g180
g3
NtRp228
g1
(g5
g6
(dp229
g8
g1
(g9
g3
NtRp230
(dp231
g12
(tsg13
g14
sg16
g180
sg17
g18
sbsg19
g165
sg29
(lp232
sg31
g216
sg32
I00
sg88
(lp233
sg68
(lp234
sg127
(lp235
g230
asg33
(lp236
sg70
Nsg190
(lp237
sg91
(lp238
sg57
(lp239
sg71
(lp240
stRp241
g241
bbsg68
(lp242
sg70
Nsg197
I1
sg127
g198
sg190
(lp243
g228
astRp244
g244
bbag1
(g208
g3
NtRp245
g1
(g5
g6
(dp246
g8
g1
(g9
g3
NtRp247
(dp248
g12
(tsg13
g14
sg16
g208
sg17
S'txt writer object'
p249
sbsg19
g165
sg29
(lp250
sg31
g140
sg32
I01
sg167
g168
sg33
(lp251
sg88
(lp252
sg91
(lp253
sg57
(lp254
sg71
(lp255
sg64
(lp256
g175
ag176
ag177
asg179
g1
(g180
g3
NtRp257
g1
(g5
g6
(dp258
g8
g1
(g9
g3
NtRp259
(dp260
g12
(tsg13
g14
sg16
g180
sg17
g18
sbsg19
g165
sg29
(lp261
sg31
g245
sg32
I00
sg88
(lp262
sg68
(lp263
sg127
(lp264
g259
asg33
(lp265
sg70
Nsg190
(lp266
sg91
(lp267
sg57
(lp268
sg71
(lp269
stRp270
g270
bbsg68
(lp271
sg70
Nsg127
g198
sg190
(lp272
g257
astRp273
g273
bbag1
(g212
g3
NtRp274
g1
(g5
g6
(dp275
g8
g1
(g9
g3
NtRp276
(dp277
g12
(tsg13
g14
sg16
g212
sg17
S'plt writer object'
p278
sbsg19
g165
sg29
(lp279
sg31
g140
sg32
I01
sg167
g168
sg33
(lp280
sg88
(lp281
sg91
(lp282
sg57
(lp283
sg71
(lp284
sg64
(lp285
g175
ag176
ag177
ag178
asg179
g1
(g180
g3
NtRp286
g1
(g5
g6
(dp287
g8
g1
(g9
g3
NtRp288
(dp289
g12
(tsg13
g14
sg16
g180
sg17
g18
sbsg19
g165
sg29
(lp290
sg31
g274
sg32
I00
sg45
g46
sg33
(lp291
sg88
(lp292
sg91
(lp293
sg57
(lp294
sg71
(lp295
sg61
g62
sg63
g63
sg68
(lp296
sg70
Nsg127
(lp297
g288
asg190
(lp298
stRp299
g299
bbsg68
(lp300
sS'plt_window'
p301
Nsg70
Nsg197
I1
sg127
g198
sg190
(lp302
g286
astRp303
g303
bbasS'output_plt'
p304
I01
sS'default_paths_plt'
p305
I01
sS'flat_data'
p306
I00
sg29
(lp307
sg31
g38
sg32
I01
sS'targeted'
p308
(lp309
g52
aS'correlation coefficients'
p310
aS'correlation p-value'
p311
asS'outputs'
p312
(lp313
(lp314
a(lp315
a(lp316
a(lp317
asS'save_filename'
p318
Vcorrelations_output.0
p319
sg167
(dp320
S'vtk filename'
p321
S''
sS'txt filename'
p322
S''
sS'pkl filename'
p323
S''
sS'plt filename'
p324
S''
ssS'output_txt'
p325
I00
sg88
(lp326
sg64
(lp327
g66
ag112
aS'output_vtk'
p328
ag150
ag325
ag304
ag148
ag318
ag167
aS'directories'
p329
ag308
asS'default_paths_txt'
p330
I01
sS'default_paths_pkl'
p331
I01
sg112
I01
sg329
(dp332
S'vtk directory'
p333
S''
sS'txt directory'
p334
S''
sS'pkl directory'
p335
S''
sS'plt directory'
p336
S''
ssS'partition'
p337
(dp338
S'template owners'
p339
g1
(g5
g6
(dp340
S'_parent'
p341
Nsg157
g158
stRp342
(dp343
g70
NsS'writers'
p344
g158
sbssg328
I01
sS'default_targets_pkl'
p345
I01
sg127
(lp346
g142
asg190
g158
stRp347
g347
bbsg127
(lp348
g1
(g9
g3
NtRp349
(dp350
g12
(tsg13
g14
sg16
clibs.modular_core.libpostprocess
post_process_meanfield
p351
sg17
S'standard statistics'
p352
sbag1
(g9
g3
NtRp353
(dp354
g12
(tsg13
g14
sg16
clibs.modular_core.libpostprocess
post_process_counts_to_concentrations
p355
sg17
S'counts to concentrations'
p356
sbag1
(g9
g3
NtRp357
(dp358
g12
(tsg13
g14
sg16
g37
sg17
g42
sbag1
(g9
g3
NtRp359
(dp360
g12
(tsg13
g14
sg16
clibs.modular_core.libpostprocess
post_process_slice_from_trajectory
p361
sg17
S'slice from trajectory'
p362
sbag1
(g9
g3
NtRp363
(dp364
g12
(tsg13
g14
sg16
clibs.modular_core.libpostprocess
post_process_reorganize_data
p365
sg17
S'reorganize data'
p366
sbag1
(g9
g3
NtRp367
(dp368
g12
(tsg13
g14
sg16
clibs.modular_core.libpostprocess
post_process_1_to_1_binary_operation
p369
sg17
S'one to one binary operation'
p370
sbag1
(g9
g3
NtRp371
(dp372
g12
(tsg13
g14
sg16
clibs.modular_core.libpostprocess
post_process_measure_probability
p373
sg17
S'probability'
p374
sbag1
(g9
g3
NtRp375
(dp376
g12
(tsg13
g14
sg16
clibs.modular_core.libpostprocess
post_process_period_finding
p377
sg17
S'period finding'
p378
sbasg190
(lp379
g140
astRp380
g380
bbag1
(g351
g3
NtRp381
g1
(g5
g6
(dp382
g8
g1
(g9
g3
NtRp383
(dp384
g12
(tsg13
g14
sg16
g351
sg17
S'standard statistics'
p385
sbsg19
Vstats of CFP
p386
sg44
I01
sg45
g46
sg47
(lp387
g49
ag43
asg33
(lp388
sg29
(lp389
sg57
(lp390
sg59
g60
sg61
S'time'
p391
sg63
g63
sg64
g65
sg67
I100
sg68
(lp392
sg66
g386
sg70
Nsg71
(lp393
sg73
(lp394
g75
asg76
I00
sg51
g52
sg31
g24
sg32
I01
sg78
g56
sg79
(lp395
g52
aS'CFP mean'
p396
aS'CFP median'
p397
aS'CFP variance'
p398
aS'1 stddev of CFP'
p399
aS'CFP +1 stddev'
p400
aS'CFP -1 stddev'
p401
aS'CFP coefficient of variation'
p402
asg88
(lp403
sg90
I00
sg91
(lp404
sg93
I01
sg95
g97
sg130
(lp405
S'all trajectories'
p406
aS'by parameter space map'
p407
asg134
g395
sg138
g1
(g139
g3
NtRp408
g1
(g5
g6
(dp409
g8
g1
(g9
g3
NtRp410
(dp411
g12
(tsg13
g14
sg16
g139
sg17
g18
sbsg19
Vstats of CFP output
p412
sg145
I01
sg146
I01
sg33
(lp413
sg148
VC:\u005cUsers\u005cbartl_000\u005cDesktop\u005cWork\u005cModular\u005cchemicallite\u005coutput
p414
sg150
I00
sg71
(lp415
sg152
I01
sg91
(lp416
sg68
(lp417
sg57
(lp418
sg70
Nsg156
I01
sg157
(lp419
g1
(g159
g3
NtRp420
g1
(g5
g6
(dp421
g8
g162
sg19
g165
sg29
(lp422
sg31
g408
sg32
I01
sg167
g168
sg33
(lp423
sg88
(lp424
sg91
(lp425
sg57
(lp426
sg71
(lp427
sg64
(lp428
g175
ag176
ag177
ag178
asg179
g1
(g180
g3
NtRp429
g1
(g5
g6
(dp430
g8
g1
(g9
g3
NtRp431
(dp432
g12
(tsg13
g14
sg16
g180
sg17
g18
sbsg19
g165
sg29
(lp433
sg31
g420
sg32
I00
sg88
(lp434
sg68
(lp435
sg127
(lp436
g431
asg33
(lp437
sg70
Nsg190
(lp438
sg91
(lp439
sg57
(lp440
sg71
(lp441
stRp442
g442
bbsg68
(lp443
sg70
Nsg197
I1
sg127
g198
sg190
(lp444
g429
astRp445
g445
bbag1
(g204
g3
NtRp446
g1
(g5
g6
(dp447
g8
g218
sg19
g165
sg29
(lp448
sg31
g408
sg32
I01
sg167
g168
sg33
(lp449
sg88
(lp450
sg91
(lp451
sg57
(lp452
sg71
(lp453
sg64
(lp454
g175
ag176
ag177
asg179
g1
(g180
g3
NtRp455
g1
(g5
g6
(dp456
g8
g1
(g9
g3
NtRp457
(dp458
g12
(tsg13
g14
sg16
g180
sg17
g18
sbsg19
g165
sg29
(lp459
sg31
g446
sg32
I00
sg88
(lp460
sg68
(lp461
sg127
(lp462
g457
asg33
(lp463
sg70
Nsg190
(lp464
sg91
(lp465
sg57
(lp466
sg71
(lp467
stRp468
g468
bbsg68
(lp469
sg70
Nsg197
I1
sg127
g198
sg190
(lp470
g455
astRp471
g471
bbag1
(g208
g3
NtRp472
g1
(g5
g6
(dp473
g8
g247
sg19
g165
sg29
(lp474
sg31
g408
sg32
I01
sg167
g168
sg33
(lp475
sg88
(lp476
sg91
(lp477
sg57
(lp478
sg71
(lp479
sg64
(lp480
g175
ag176
ag177
asg179
g1
(g180
g3
NtRp481
g1
(g5
g6
(dp482
g8
g1
(g9
g3
NtRp483
(dp484
g12
(tsg13
g14
sg16
g180
sg17
g18
sbsg19
g165
sg29
(lp485
sg31
g472
sg32
I00
sg88
(lp486
sg68
(lp487
sg127
(lp488
g483
asg33
(lp489
sg70
Nsg190
(lp490
sg91
(lp491
sg57
(lp492
sg71
(lp493
stRp494
g494
bbsg68
(lp495
sg70
Nsg127
g198
sg190
(lp496
g481
astRp497
g497
bbag1
(g212
g3
NtRp498
g1
(g5
g6
(dp499
g8
g276
sg19
g165
sg29
(lp500
sg31
g408
sg32
I01
sg167
g168
sg33
(lp501
sg88
(lp502
sg91
(lp503
sg57
(lp504
sg71
(lp505
sg64
(lp506
g175
ag176
ag177
ag178
asg179
g1
(g180
g3
NtRp507
g1
(g5
g6
(dp508
g8
g1
(g9
g3
NtRp509
(dp510
g12
(tsg13
g14
sg16
g180
sg17
g18
sbsg19
g165
sg29
(lp511
sg31
g498
sg32
I00
sg45
g46
sg33
(lp512
sg88
(lp513
sg91
(lp514
sg57
(lp515
sg71
(lp516
sg61
g391
sg63
g63
sg68
(lp517
sg70
Nsg127
(lp518
g509
asg190
(lp519
stRp520
g520
bbsg68
(lp521
sg301
Nsg70
Nsg197
I1
sg127
g198
sg190
(lp522
g507
astRp523
g523
bbasg304
I01
sg305
I01
sg306
I00
sg29
(lp524
sg31
g381
sg32
I01
sg308
(lp525
g52
aS'CFP mean'
p526
aS'CFP median'
p527
aS'CFP variance'
p528
aS'1 stddev of CFP'
p529
aS'CFP +1 stddev'
p530
aS'CFP -1 stddev'
p531
aS'CFP coefficient of variation'
p532
asg312
(lp533
(lp534
a(lp535
a(lp536
a(lp537
asg318
VCFP_stats_output.0
p538
sg167
(dp539
g321
S''
sg322
S''
sg323
S''
sg324
S''
ssg325
I00
sg88
(lp540
sg64
g327
sg330
I01
sg331
I01
sg112
I01
sg329
(dp541
g333
S''
sg334
S''
sg335
S''
sg336
S''
ssg337
(dp542
g339
g1
(g5
g6
(dp543
g341
Nsg157
g419
stRp544
(dp545
g70
Nsg344
g419
sbssg328
I01
sg345
I01
sg127
(lp546
g410
asg190
g419
stRp547
g547
bbsg127
g348
sg190
(lp548
g408
astRp549
g549
bbag1
(g351
g3
NtRp550
g1
(g5
g6
(dp551
g8
g1
(g9
g3
NtRp552
(dp553
g12
(tsg13
g14
sg16
g351
sg17
g385
sbsg19
Vstats of GFP
p554
sg44
I01
sg45
g46
sg47
(lp555
g49
ag43
ag386
asg33
(lp556
sg29
(lp557
sg57
(lp558
sg59
g60
sg61
g391
sg63
g63
sg64
g65
sg67
I100
sg68
(lp559
sg66
g554
sg70
Nsg71
(lp560
sg73
(lp561
g75
asg76
I00
sg51
g52
sg31
g24
sg32
I01
sg78
g54
sg79
(lp562
g52
aS'GFP mean'
p563
aS'GFP median'
p564
aS'GFP variance'
p565
aS'1 stddev of GFP'
p566
aS'GFP +1 stddev'
p567
aS'GFP -1 stddev'
p568
aS'GFP coefficient of variation'
p569
asg88
(lp570
sg90
I00
sg91
(lp571
sg93
I01
sg95
g97
sg130
(lp572
g406
ag407
asg134
g562
sg138
g1
(g139
g3
NtRp573
g1
(g5
g6
(dp574
g8
g1
(g9
g3
NtRp575
(dp576
g12
(tsg13
g14
sg16
g139
sg17
g18
sbsg19
Vstats of GFP output
p577
sg145
I01
sg146
I01
sg33
(lp578
sg148
VC:\u005cUsers\u005cbartl_000\u005cDesktop\u005cWork\u005cModular\u005cchemicallite\u005coutput
p579
sg150
I00
sg71
(lp580
sg152
I01
sg91
(lp581
sg68
(lp582
sg57
(lp583
sg70
Nsg156
I01
sg157
(lp584
g1
(g159
g3
NtRp585
g1
(g5
g6
(dp586
g8
g162
sg19
g165
sg29
(lp587
sg31
g573
sg32
I01
sg167
g168
sg33
(lp588
sg88
(lp589
sg91
(lp590
sg57
(lp591
sg71
(lp592
sg64
(lp593
g175
ag176
ag177
ag178
asg179
g1
(g180
g3
NtRp594
g1
(g5
g6
(dp595
g8
g1
(g9
g3
NtRp596
(dp597
g12
(tsg13
g14
sg16
g180
sg17
g18
sbsg19
g165
sg29
(lp598
sg31
g585
sg32
I00
sg88
(lp599
sg68
(lp600
sg127
(lp601
g596
asg33
(lp602
sg70
Nsg190
(lp603
sg91
(lp604
sg57
(lp605
sg71
(lp606
stRp607
g607
bbsg68
(lp608
sg70
Nsg197
I1
sg127
g198
sg190
(lp609
g594
astRp610
g610
bbag1
(g204
g3
NtRp611
g1
(g5
g6
(dp612
g8
g218
sg19
g165
sg29
(lp613
sg31
g573
sg32
I01
sg167
g168
sg33
(lp614
sg88
(lp615
sg91
(lp616
sg57
(lp617
sg71
(lp618
sg64
(lp619
g175
ag176
ag177
asg179
g1
(g180
g3
NtRp620
g1
(g5
g6
(dp621
g8
g1
(g9
g3
NtRp622
(dp623
g12
(tsg13
g14
sg16
g180
sg17
g18
sbsg19
g165
sg29
(lp624
sg31
g611
sg32
I00
sg88
(lp625
sg68
(lp626
sg127
(lp627
g622
asg33
(lp628
sg70
Nsg190
(lp629
sg91
(lp630
sg57
(lp631
sg71
(lp632
stRp633
g633
bbsg68
(lp634
sg70
Nsg197
I1
sg127
g198
sg190
(lp635
g620
astRp636
g636
bbag1
(g208
g3
NtRp637
g1
(g5
g6
(dp638
g8
g247
sg19
g165
sg29
(lp639
sg31
g573
sg32
I01
sg167
g168
sg33
(lp640
sg88
(lp641
sg91
(lp642
sg57
(lp643
sg71
(lp644
sg64
(lp645
g175
ag176
ag177
asg179
g1
(g180
g3
NtRp646
g1
(g5
g6
(dp647
g8
g1
(g9
g3
NtRp648
(dp649
g12
(tsg13
g14
sg16
g180
sg17
g18
sbsg19
g165
sg29
(lp650
sg31
g637
sg32
I00
sg88
(lp651
sg68
(lp652
sg127
(lp653
g648
asg33
(lp654
sg70
Nsg190
(lp655
sg91
(lp656
sg57
(lp657
sg71
(lp658
stRp659
g659
bbsg68
(lp660
sg70
Nsg127
g198
sg190
(lp661
g646
astRp662
g662
bbag1
(g212
g3
NtRp663
g1
(g5
g6
(dp664
g8
g276
sg19
g165
sg29
(lp665
sg31
g573
sg32
I01
sg167
g168
sg33
(lp666
sg88
(lp667
sg91
(lp668
sg57
(lp669
sg71
(lp670
sg64
(lp671
g175
ag176
ag177
ag178
asg179
g1
(g180
g3
NtRp672
g1
(g5
g6
(dp673
g8
g1
(g9
g3
NtRp674
(dp675
g12
(tsg13
g14
sg16
g180
sg17
g18
sbsg19
g165
sg29
(lp676
sg31
g663
sg32
I00
sg45
g46
sg33
(lp677
sg88
(lp678
sg91
(lp679
sg57
(lp680
sg71
(lp681
sg61
g391
sg63
g63
sg68
(lp682
sg70
Nsg127
(lp683
g674
asg190
(lp684
stRp685
g685
bbsg68
(lp686
sg301
Nsg70
Nsg197
I1
sg127
g198
sg190
(lp687
g672
astRp688
g688
bbasg304
I01
sg305
I01
sg306
I00
sg29
(lp689
sg31
g550
sg32
I01
sg308
(lp690
g52
aS'GFP mean'
p691
aS'GFP median'
p692
aS'GFP variance'
p693
aS'1 stddev of GFP'
p694
aS'GFP +1 stddev'
p695
aS'GFP -1 stddev'
p696
aS'GFP coefficient of variation'
p697
asg312
(lp698
(lp699
a(lp700
a(lp701
a(lp702
asg318
VGFP_stats_output.0
p703
sg167
(dp704
g321
S''
sg322
S''
sg323
S''
sg324
S''
ssg325
I00
sg88
(lp705
sg64
g327
sg330
I01
sg331
I01
sg112
I01
sg329
(dp706
g333
S''
sg334
S''
sg335
S''
sg336
S''
ssg337
(dp707
g339
g1
(g5
g6
(dp708
g341
Nsg157
g584
stRp709
(dp710
g70
Nsg344
g584
sbssg328
I01
sg345
I01
sg127
(lp711
g575
asg190
g584
stRp712
g712
bbsg127
g348
sg190
(lp713
g573
astRp714
g714
bbasg88
(lp715
sg91
(lp716
sg57
(lp717
sg71
(lp718
sg112
I00
sg68
(lp719
sg66
g28
sg70
NsS'selected_process_label'
p720
S'None'
p721
sg127
(lp722
g26
asS'process_selector'
p723
NstRp724
g724
bbsS'module'
p725
S'chemicallite'
p726
sg33
(lp727
sS'skip_simulation'
p728
I00
sg68
(lp729
sS'tree_reference'
p730
NsS'multiprocess_plan'
p731
g97
sS'_module_memory_'
p732
(lp733
sg66
g20
sS'num_trajectories'
p734
I1
sg57
(lp735
sg71
(lp736
sg70
NsS'output_plan'
p737
g1
(g139
g3
NtRp738
g1
(g5
g6
(dp739
g8
g1
(g9
g3
NtRp740
(dp741
g12
(tsg13
g14
sg16
g139
sg17
g18
sbsg19
S'Simulation'
p742
sg145
I01
sg146
I01
sg33
(lp743
sg148
S'C:\\Users\\bartl_000\\Desktop\\Work\\Modular\\chemicallite\\output'
p744
sg150
I00
sg71
(lp745
sg152
I01
sg91
(lp746
sg68
(lp747
sg57
(lp748
sg70
Nsg156
I01
sg157
(lp749
g1
(g159
g3
NtRp750
g1
(g5
g6
(dp751
g8
g162
sg19
S'mobj__0'
p752
sg29
(lp753
sg31
g738
sg32
I01
sg167
g168
sg33
(lp754
sg88
(lp755
sg91
(lp756
sg57
(lp757
sg71
(lp758
sg64
(lp759
g175
ag176
ag177
ag178
asg179
g1
(g180
g3
NtRp760
g1
(g5
g6
(dp761
g8
g1
(g9
g3
NtRp762
(dp763
g12
(tsg13
g14
sg16
g180
sg17
g18
sbsg19
g165
sg29
(lp764
sg31
g750
sg32
I00
sg88
(lp765
sg68
(lp766
sg127
(lp767
g762
asg33
(lp768
sg70
Nsg190
(lp769
sg91
(lp770
sg57
(lp771
sg71
(lp772
stRp773
g773
bbsg68
(lp774
sg70
Nsg197
I1
sg127
g198
sg190
(lp775
g760
astRp776
g776
bbag1
(g204
g3
NtRp777
g1
(g5
g6
(dp778
g8
g218
sg19
S'mobj__000'
p779
sg29
(lp780
sg31
g738
sg32
I01
sg167
g168
sg33
(lp781
sg88
(lp782
sg91
(lp783
sg57
(lp784
sg71
(lp785
sg64
(lp786
g175
ag176
ag177
asg179
g1
(g180
g3
NtRp787
g1
(g5
g6
(dp788
g8
g1
(g9
g3
NtRp789
(dp790
g12
(tsg13
g14
sg16
g180
sg17
g18
sbsg19
S'mobj__00'
p791
sg29
(lp792
sg31
g777
sg32
I00
sg88
(lp793
sg68
(lp794
sg127
(lp795
g789
asg33
(lp796
sg70
Nsg190
(lp797
sg91
(lp798
sg57
(lp799
sg71
(lp800
stRp801
g801
bbsg68
(lp802
sg70
Nsg197
I1
sg127
g198
sg190
(lp803
g787
astRp804
g804
bbag1
(g208
g3
NtRp805
g1
(g5
g6
(dp806
g8
g247
sg19
S'mobj__00000'
p807
sg29
(lp808
sg31
g738
sg32
I01
sg167
g168
sg33
(lp809
sg88
(lp810
sg91
(lp811
sg57
(lp812
sg71
(lp813
sg64
(lp814
g175
ag176
ag177
asg179
g1
(g180
g3
NtRp815
g1
(g5
g6
(dp816
g8
g1
(g9
g3
NtRp817
(dp818
g12
(tsg13
g14
sg16
g180
sg17
g18
sbsg19
S'mobj__0000'
p819
sg29
(lp820
sg31
g805
sg32
I00
sg88
(lp821
sg68
(lp822
sg127
(lp823
g817
asg33
(lp824
sg70
Nsg190
(lp825
sg91
(lp826
sg57
(lp827
sg71
(lp828
stRp829
g829
bbsg68
(lp830
sg70
Nsg127
g198
sg190
(lp831
g815
astRp832
g832
bbag1
(g212
g3
NtRp833
g1
(g5
g6
(dp834
g8
g276
sg19
S'mobj__0000000'
p835
sg29
(lp836
sg31
g738
sg32
I01
sg167
g168
sg33
(lp837
sg88
(lp838
sg91
(lp839
sg57
(lp840
sg71
(lp841
sg64
(lp842
g175
ag176
ag177
ag178
asg179
g1
(g180
g3
NtRp843
g1
(g5
g6
(dp844
g8
g1
(g9
g3
NtRp845
(dp846
g12
(tsg13
g14
sg16
g180
sg17
g18
sbsg19
S'mobj__000000'
p847
sg29
(lp848
sg31
g833
sg32
I00
sS'y_title'
p849
S'y-title'
p850
sg33
(lp851
sg88
(lp852
sg91
(lp853
sg57
(lp854
sg71
(lp855
sS'x_title'
p856
S'x-title'
p857
sS'title'
p858
g858
sg68
(lp859
sg70
Nsg127
(lp860
g845
asg190
(lp861
stRp862
g862
bbsg68
(lp863
sg301
Nsg70
Nsg197
I1
sg127
g198
sg190
(lp864
g843
astRp865
g865
bbasg304
I01
sg305
I01
sg306
I00
sg29
(lp866
sg31
g4
sg32
I01
sg308
(lp867
S'time'
p868
aS'fixed_time'
p869
aS'lambda_CA'
p870
aS'lambda_GLA'
p871
ag54
ag56
asg312
(lp872
(lp873
g868
ag869
ag870
ag871
ag54
ag56
aa(lp874
g868
ag869
ag870
ag871
ag54
ag56
aa(lp875
g868
ag869
ag870
ag871
ag54
ag56
aa(lp876
g868
ag869
ag870
ag871
ag54
ag56
aasg318
VQEntrain.1004
p877
sg167
(dp878
g321
S''
sg322
S''
sg323
S''
sg324
S''
ssg325
I00
sg88
(lp879
sg64
g327
sg330
I01
sg331
I01
sg112
I01
sg329
(dp880
g333
S''
sg334
S''
sg335
S''
sg336
S''
ssg337
(dp881
g339
g1
(g5
g6
(dp882
g341
Nsg157
g749
stRp883
(dp884
g70
Nsg344
g749
sbssg328
I00
sg345
I01
sg127
(lp885
g740
asg190
g749
stRp886
g886
bbsg858
S'title'
p887
sS'simulation_plan'
p888
g1
(clibs.modular_core.libsimcomponents
simulation_plan
p889
g3
NtRp890
g1
(g5
g6
(dp891
g8
g1
(g9
g3
NtRp892
(dp893
g12
(tsg13
g14
sg16
g889
sg17
g18
sbsg19
S'simulation plan'
p894
sS'widg_templates_capture_criteria'
p895
(lp896
sS'selected_end_crit_label'
p897
g721
sg31
g4
sS'widg_templates_plot_targets'
p898
(lp899
sS'end_criteria'
p900
(lp901
g1
(clibs.modular_core.libcriterion
criterion_sim_time
p902
g3
NtRp903
g1
(g5
g6
(dp904
g8
g1
(g9
g3
NtRp905
(dp906
g12
(tsg13
g14
sg16
g902
sg17
S'time limit'
p907
sbsg19
S'time limit criterion'
p908
sg29
(lp909
sg31
g890
sg32
I01
sg33
(lp910
sg88
(lp911
sg91
(lp912
sg57
(lp913
sg71
(lp914
sg64
(lp915
g175
ag176
aS'bRelevant'
p916
aS'max_time'
p917
asg68
(lp918
sg70
NsS'max_time'
p919
F2000
sS'bRelevant'
p920
I01
sg127
(lp921
g1
(g9
g3
NtRp922
(dp923
g12
(tsg13
g14
sg16
g902
sg17
S'time limit'
p924
sbag1
(g9
g3
NtRp925
(dp926
g12
(tsg13
g14
sg16
clibs.modular_core.libcriterion
criterion_iteration
p927
sg17
S'iteration limit'
p928
sbag1
(g9
g3
NtRp929
(dp930
g12
(tsg13
g14
sg16
clibs.modular_core.libcriterion
criterion_capture_count
p931
sg17
S'capture limit'
p932
sbag1
(g9
g3
NtRp933
(dp934
g12
(tsg13
g14
sg16
clibs.modules.libchemicallite
criterion_spec_included_scaler_increment
p935
sg17
S'species scaler increment'
p936
sbag1
(g9
g3
NtRp937
(dp938
g12
(tsg13
g14
sg16
clibs.modules.libchemicallite
criterion_species_count
p939
sg17
S'species count'
p940
sbasg190
(lp941
stRp942
g942
bbasS'capt_crit_selector'
p943
NsS'capture_criteria'
p944
(lp945
g1
(g935
g3
NtRp946
g1
(g5
g6
(dp947
g8
g1
(g9
g3
NtRp948
(dp949
g12
(tsg13
g14
sg16
g935
sg17
S'species scaler increment'
p950
sbsg19
S'scaler increment criterion'
p951
sg29
(lp952
sS'key'
p953
S'time'
p954
sg31
g890
sg32
I01
sS'keys'
p955
(lp956
S'iteration'
p957
aS'time'
p958
aS'AraC2'
p959
aS'LacI'
p960
aS'GFP'
p961
aS'AraC'
p962
aS'LacI4'
p963
aS'CFP'
p964
asg33
(lp965
sS'increment'
p966
S'10'
p967
sg88
(lp968
sg91
(lp969
sg57
(lp970
sg71
(lp971
sg64
(lp972
g175
ag176
ag916
aS'key'
p973
aS'keys'
p974
aS'increment'
p975
asg68
(lp976
sg70
Nsg920
I01
sg127
g921
sg190
(lp977
stRp978
g978
bbasg33
(lp979
sg29
(lp980
sS'widg_templates_end_criteria'
p981
(lp982
sg88
(lp983
sS'selected_capt_crit_label'
p984
g721
sS'end_crit_selector'
p985
Nsg91
(lp986
sg57
(lp987
sg71
(lp988
sg112
I00
sS'plot_targets'
p989
(lp990
g957
ag958
aS'fixed_time'
p991
ag959
ag960
ag961
ag962
ag963
ag964
aS'gamma_L'
p992
aS'tau_L'
p993
aS'gamma_G'
p994
aS'gamma_A'
p995
aS'gamma_C'
p996
aS'tau_A'
p997
aS'lambda_C'
p998
aS'kappa_C'
p999
aS'eta_L'
p1000
aS'kappa_A2'
p1001
aS'eta_A'
p1002
aS'gamma_L4'
p1003
aS'alpha_GLA'
p1004
aS'k_mu'
p1005
aS'k_L'
p1006
aS'k_A'
p1007
aS'gamma_A2'
p1008
aS'AHL'
p1009
aS'alpha_CA'
p1010
aS'mu'
p1011
aS'kappa_A'
p1012
aS'kappa_G'
p1013
aS'kappa_L4'
p1014
aS'kappa_L'
p1015
aS'g_L4'
p1016
aS'g_A'
p1017
aS'g_A2'
p1018
aS'g_L'
p1019
ag870
aS'g_G'
p1020
ag871
aS'g_C'
p1021
asg32
I01
sS'selected_end_crit'
p1022
Nsg68
(lp1023
sS'selected_capt_crit'
p1024
Nsg70
Nsg127
(lp1025
g892
astRp1026
g1026
bbsS'data_pool_id'
p1027
S'1393641080.18'
p1028
sS'mcfg_path'
p1029
VC:/Users/bartl_000/Desktop/Work/Modular/chemicallite/QEntrain2.mcfg
p1030
sS'run_params'
p1031
g1
(g5
g6
(dp1032
S'reactions'
p1033
(lp1034
g1
(clibs.modules.libchemicallite
reaction
p1035
g3
NtRp1036
g1
(g5
g6
(dp1037
g8
g1
(g9
g3
NtRp1038
(dp1039
g12
(tsg13
g14
sg16
g1035
sg17
g18
sbsg19
S'production of GFP LacI AraC'
p1040
sg29
(lp1041
sg31
g4
sg32
I01
sg33
(lp1042
sS'rate'
p1043
S'lambda_GLA'
p1044
sS'used'
p1045
(lp1046
sS'occurrences'
p1047
(lp1048
sg88
(lp1049
sg91
(lp1050
sg57
(lp1051
sg71
(lp1052
sS'produced'
p1053
(lp1054
(g961
I1
tp1055
a(g960
I1
tp1056
a(g962
I1
tp1057
asS'propensity_scheme'
p1058
S'classic'
p1059
sS'propensity_minimum'
p1060
F1.0000000000000001e-30
sg64
(lp1061
g66
ag1058
ag1043
ag1045
ag1053
asS'system'
p1062
Nsg68
(lp1063
sg70
NsS'propensity'
p1064
F1
sg127
(lp1065
g1038
asg190
(lp1066
g1
(clibs.modular_core.libgeometry
interface_template_p_space_axis
p1067
g3
NtRp1068
(dp1069
S'p_sp_bounds'
p1070
(lp1071
F9.9999999999999995e-08
aF1000
asg12
(tsS'parent'
p1072
g1036
sS'p_sp_continuous'
p1073
I01
sS'rewidget_'
p1074
I00
sS'gui_give_p_sp_control'
p1075
I01
sS'gui_give_p_sp_cont_disc_control'
p1076
I00
sS'instance'
p1077
g1036
sg973
g1043
sg13
(lp1078
S'reference'
p1079
aS'linkages'
p1080
asS'widg_templates'
p1081
(lp1082
g1
(clibs.gui.libqtgui_masons
interface_template_gui
p1083
g3
NtRp1084
(dp1085
S'box_labels'
p1086
(lp1087
S'Parameter Space'
p1088
asg12
(tsg974
(lp1089
(lp1090
S'contribute_to_p_sp'
p1091
aasS'labels'
p1092
(lp1093
(lp1094
S'Contribute to Parameter Space'
p1095
aasS'instances'
p1096
(lp1097
(lp1098
g1068
aasS'append_instead'
p1099
(lp1100
I00
asS'gui_package'
p1101
S'PySide'
p1102
sS'widgets'
p1103
(lp1104
S'check_set'
p1105
asbasS'contribute_to_p_sp'
p1106
I00
sbag1
(g1067
g3
NtRp1107
(dp1108
g1070
(lp1109
F9.9999999999999995e-08
aF1000
asg12
(tsg1072
g1036
sg1073
I01
sg1074
I00
sg1075
I01
sg1076
I00
sg1077
g1036
sg973
g1043
sg13
g1078
sg1081
(lp1110
g1
(g1083
g3
NtRp1111
(dp1112
g1086
(lp1113
g1088
asg12
(tsg974
(lp1114
(lp1115
g1091
aasg1092
(lp1116
(lp1117
g1095
aasg1096
(lp1118
(lp1119
g1107
aasg1099
(lp1120
I00
asg1101
g1102
sg1103
(lp1121
g1105
asbasg1106
I00
sbag1
(g1067
g3
NtRp1122
(dp1123
g1070
(lp1124
F9.9999999999999995e-08
aF1000
asg12
(tsg1072
g1036
sg1073
I01
sg1074
I00
sg1075
I01
sg1076
I00
sg1077
g1036
sg973
g1043
sg13
g1078
sg1081
(lp1125
g1
(g1083
g3
NtRp1126
(dp1127
g1086
(lp1128
g1088
asg12
(tsg974
(lp1129
(lp1130
g1091
aasg1092
(lp1131
(lp1132
g1095
aasg1096
(lp1133
(lp1134
g1122
aasg1099
(lp1135
I00
asg1101
g1102
sg1103
(lp1136
g1105
asbasg1106
I00
sbag1
(g1067
g3
NtRp1137
(dp1138
g1070
(lp1139
F9.9999999999999995e-08
aF1000
asg12
(tsg1072
g1036
sg1073
I01
sg1074
I00
sg1075
I01
sg1076
I00
sg1077
g1036
sg973
g1043
sg13
g1078
sg1081
(lp1140
g1
(g1083
g3
NtRp1141
(dp1142
g1086
(lp1143
g1088
asg12
(tsg974
(lp1144
(lp1145
g1091
aasg1092
(lp1146
(lp1147
g1095
aasg1096
(lp1148
(lp1149
g1137
aasg1099
(lp1150
I00
asg1101
g1102
sg1103
(lp1151
g1105
asbasg1106
I00
sbag1
(g1067
g3
NtRp1152
(dp1153
g1070
(lp1154
F9.9999999999999995e-08
aF1000
asg12
(tsg1072
g1036
sg1073
I01
sg1074
I00
sg1075
I01
sg1076
I00
sg1077
g1036
sg973
g1043
sg13
g1078
sg1081
(lp1155
g1
(g1083
g3
NtRp1156
(dp1157
g1086
(lp1158
g1088
asg12
(tsg974
(lp1159
(lp1160
g1091
aasg1092
(lp1161
(lp1162
g1095
aasg1096
(lp1163
(lp1164
g1152
aasg1099
(lp1165
I00
asg1101
g1102
sg1103
(lp1166
g1105
asbasg1106
I00
sbag1
(g1067
g3
NtRp1167
(dp1168
g1070
(lp1169
F9.9999999999999995e-08
aF1000
asg12
(tsg1072
g1036
sg1073
I01
sg1074
I00
sg1075
I01
sg1076
I00
sg1077
g1036
sg973
g1043
sg13
g1078
sg1081
(lp1170
g1
(g1083
g3
NtRp1171
(dp1172
g1086
(lp1173
g1088
asg12
(tsg974
(lp1174
(lp1175
g1091
aasg1092
(lp1176
(lp1177
g1095
aasg1096
(lp1178
(lp1179
g1167
aasg1099
(lp1180
I00
asg1101
g1102
sg1103
(lp1181
g1105
asbasg1106
I00
sbag1
(g1067
g3
NtRp1182
(dp1183
g1070
(lp1184
F9.9999999999999995e-08
aF1000
asg12
(tsg1072
g1036
sg1073
I01
sg1074
I00
sg1075
I01
sg1076
I00
sg1077
g1036
sg973
S'rate'
p1185
sg13
(lp1186
S'reference'
p1187
aS'linkages'
p1188
asg1081
(lp1189
g1
(g1083
g3
NtRp1190
(dp1191
g1086
(lp1192
S'Parameter Space'
p1193
asg12
(tsg974
(lp1194
(lp1195
S'contribute_to_p_sp'
p1196
aasg1092
(lp1197
(lp1198
S'Contribute to Parameter Space'
p1199
aasg1096
(lp1200
(lp1201
g1182
aasg1099
(lp1202
I00
asg1101
S'PySide'
p1203
sg1103
(lp1204
S'check_set'
p1205
asbasg1106
I00
sbag1
(g1067
g3
NtRp1206
(dp1207
g1070
(lp1208
F9.9999999999999995e-08
aF1000
asg12
(tsg1072
g1036
sg1073
I01
sg1074
I00
sg1075
I01
sg1076
I00
sg1077
g1036
sg973
g1185
sg13
g1186
sg1081
(lp1209
g1
(g1083
g3
NtRp1210
(dp1211
g1086
(lp1212
g1193
asg12
(tsg974
(lp1213
(lp1214
g1196
aasg1092
(lp1215
(lp1216
g1199
aasg1096
(lp1217
(lp1218
g1206
aasg1099
(lp1219
I00
asg1101
g1203
sg1103
(lp1220
g1205
asbasg1106
I00
sbag1
(g1067
g3
NtRp1221
(dp1222
g1070
(lp1223
F9.9999999999999995e-08
aF1000
asg12
(tsg1072
g1036
sg1073
I01
sg1074
I00
sg1075
I01
sg1076
I00
sg1077
g1036
sg973
g1185
sg13
g1186
sg1081
(lp1224
g1
(g1083
g3
NtRp1225
(dp1226
g1086
(lp1227
g1193
asg12
(tsg974
(lp1228
(lp1229
g1196
aasg1092
(lp1230
(lp1231
g1199
aasg1096
(lp1232
(lp1233
g1221
aasg1099
(lp1234
I00
asg1101
g1203
sg1103
(lp1235
g1205
asbasg1106
I00
sbag1
(g1067
g3
NtRp1236
(dp1237
g1070
(lp1238
F9.9999999999999995e-08
aF1000
asg12
(tsg1072
g1036
sg1073
I01
sg1074
I00
sg1075
I01
sg1076
I00
sg1077
g1036
sg973
g1185
sg13
g1186
sg1081
(lp1239
g1
(g1083
g3
NtRp1240
(dp1241
g1086
(lp1242
g1193
asg12
(tsg974
(lp1243
(lp1244
g1196
aasg1092
(lp1245
(lp1246
g1199
aasg1096
(lp1247
(lp1248
g1236
aasg1099
(lp1249
I00
asg1101
g1203
sg1103
(lp1250
g1205
asbasg1106
I00
sbag1
(g1067
g3
NtRp1251
(dp1252
g1070
(lp1253
F9.9999999999999995e-08
aF1000
asg12
(tsg1072
g1036
sg1073
I01
sg1074
I00
sg1075
I01
sg1076
I00
sg1077
g1036
sg973
g1185
sg13
g1186
sg1081
(lp1254
g1
(g1083
g3
NtRp1255
(dp1256
g1086
(lp1257
g1193
asg12
(tsg974
(lp1258
(lp1259
g1196
aasg1092
(lp1260
(lp1261
g1199
aasg1096
(lp1262
(lp1263
g1251
aasg1099
(lp1264
I00
asg1101
g1203
sg1103
(lp1265
g1205
asbasg1106
I00
sbag1
(g1067
g3
NtRp1266
(dp1267
g1070
(lp1268
F9.9999999999999995e-08
aF1000
asg12
(tsg1072
g1036
sg1073
I01
sg1074
I00
sg1075
I01
sg1076
I00
sg1077
g1036
sg973
g1185
sg13
g1186
sg1081
(lp1269
g1
(g1083
g3
NtRp1270
(dp1271
g1086
(lp1272
g1193
asg12
(tsg974
(lp1273
(lp1274
g1196
aasg1092
(lp1275
(lp1276
g1199
aasg1096
(lp1277
(lp1278
g1266
aasg1099
(lp1279
I00
asg1101
g1203
sg1103
(lp1280
g1205
asbasg1106
I00
sbag1
(g1067
g3
NtRp1281
(dp1282
g1070
(lp1283
F9.9999999999999995e-08
aF1000
asg12
(tsg1072
g1036
sg1073
I01
sg1074
I00
sg1075
I01
sg1076
I00
sg1077
g1036
sg973
g1185
sg13
g1186
sg1081
(lp1284
g1
(g1083
g3
NtRp1285
(dp1286
g1086
(lp1287
g1193
asg12
(tsg974
(lp1288
(lp1289
g1196
aasg1092
(lp1290
(lp1291
g1199
aasg1096
(lp1292
(lp1293
g1281
aasg1099
(lp1294
I00
asg1101
g1203
sg1103
(lp1295
g1205
asbasg1106
I00
sbag1
(g1067
g3
NtRp1296
(dp1297
g1070
(lp1298
F9.9999999999999995e-08
aF1000
asg12
(tsg1072
g1036
sg1073
I01
sg1074
I00
sg1075
I01
sg1076
I00
sg1077
g1036
sg973
g1185
sg13
g1186
sg1081
(lp1299
g1
(g1083
g3
NtRp1300
(dp1301
g1086
(lp1302
g1193
asg12
(tsg974
(lp1303
(lp1304
g1196
aasg1092
(lp1305
(lp1306
g1199
aasg1096
(lp1307
(lp1308
g1296
aasg1099
(lp1309
I00
asg1101
g1203
sg1103
(lp1310
g1205
asbasg1106
I00
sbag1
(g1067
g3
NtRp1311
(dp1312
g1070
(lp1313
F9.9999999999999995e-08
aF1000
asg12
(tsg1072
g1036
sg1073
I01
sg1074
I00
sg1075
I01
sg1076
I00
sg1077
g1036
sg973
S'rate'
p1314
sg13
(lp1315
S'reference'
p1316
aS'linkages'
p1317
asg1081
(lp1318
g1
(g1083
g3
NtRp1319
(dp1320
g1086
(lp1321
S'Parameter Space'
p1322
asg12
(tsg974
(lp1323
(lp1324
g1106
aasg1092
(lp1325
(lp1326
S'Contribute to Parameter Space'
p1327
aasg1096
(lp1328
(lp1329
g1311
aasg1099
(lp1330
I00
asg1101
S'PySide'
p1331
sg1103
(lp1332
S'check_set'
p1333
asbasg1106
I00
sbag1
(g1067
g3
NtRp1334
(dp1335
g1070
(lp1336
F9.9999999999999995e-08
aF1000
asg12
(tsg1072
g1036
sg1073
I01
sg1074
I00
sg1075
I01
sg1076
I00
sg1077
g1036
sg973
g1314
sg13
g1315
sg1081
(lp1337
g1
(g1083
g3
NtRp1338
(dp1339
g1086
(lp1340
g1322
asg12
(tsg974
(lp1341
(lp1342
g1106
aasg1092
(lp1343
(lp1344
g1327
aasg1096
(lp1345
(lp1346
g1334
aasg1099
(lp1347
I00
asg1101
g1331
sg1103
(lp1348
g1333
asbasg1106
I00
sbag1
(g1067
g3
NtRp1349
(dp1350
g1070
(lp1351
F9.9999999999999995e-08
aF1000
asg12
(tsg1072
g1036
sg1073
I01
sg1074
I00
sg1075
I01
sg1076
I00
sg1077
g1036
sg973
g1314
sg13
g1315
sg1081
(lp1352
g1
(g1083
g3
NtRp1353
(dp1354
g1086
(lp1355
g1322
asg12
(tsg974
(lp1356
(lp1357
g1106
aasg1092
(lp1358
(lp1359
g1327
aasg1096
(lp1360
(lp1361
g1349
aasg1099
(lp1362
I00
asg1101
g1331
sg1103
(lp1363
g1333
asbasg1106
I00
sbastRp1364
g1364
bbag1
(g1035
g3
NtRp1365
g1
(g5
g6
(dp1366
g8
g1
(g9
g3
NtRp1367
(dp1368
g12
(tsg13
g14
sg16
g1035
sg17
g18
sbsg19
S'dimerization of AraC'
p1369
sg29
(lp1370
sg31
g4
sg32
I01
sg33
(lp1371
sg1043
S'tau_A'
p1372
sg1045
(lp1373
(g962
I2
tp1374
asg1047
g1048
sg88
(lp1375
sg91
(lp1376
sg57
(lp1377
sg71
(lp1378
sg1053
(lp1379
(g959
I1
tp1380
asg1058
g1059
sg1060
F1.0000000000000001e-30
sg64
g1061
sg1062
Nsg68
(lp1381
sg70
Nsg1064
F1
sg127
(lp1382
g1367
asg190
(lp1383
g1
(g1067
g3
NtRp1384
(dp1385
g1070
(lp1386
F9.9999999999999995e-08
aF1000
asg12
(tsg1072
g1365
sg1073
I01
sg1074
I00
sg1075
I01
sg1076
I00
sg1077
g1365
sg973
g1043
sg13
g1078
sg1081
(lp1387
g1
(g1083
g3
NtRp1388
(dp1389
g1086
(lp1390
g1088
asg12
(tsg974
(lp1391
(lp1392
g1091
aasg1092
(lp1393
(lp1394
g1095
aasg1096
(lp1395
(lp1396
g1384
aasg1099
(lp1397
I00
asg1101
g1102
sg1103
(lp1398
g1105
asbasg1106
I00
sbag1
(g1067
g3
NtRp1399
(dp1400
g1070
(lp1401
F9.9999999999999995e-08
aF1000
asg12
(tsg1072
g1365
sg1073
I01
sg1074
I00
sg1075
I01
sg1076
I00
sg1077
g1365
sg973
g1043
sg13
g1078
sg1081
(lp1402
g1
(g1083
g3
NtRp1403
(dp1404
g1086
(lp1405
g1088
asg12
(tsg974
(lp1406
(lp1407
g1091
aasg1092
(lp1408
(lp1409
g1095
aasg1096
(lp1410
(lp1411
g1399
aasg1099
(lp1412
I00
asg1101
g1102
sg1103
(lp1413
g1105
asbasg1106
I00
sbag1
(g1067
g3
NtRp1414
(dp1415
g1070
(lp1416
F9.9999999999999995e-08
aF1000
asg12
(tsg1072
g1365
sg1073
I01
sg1074
I00
sg1075
I01
sg1076
I00
sg1077
g1365
sg973
g1043
sg13
g1078
sg1081
(lp1417
g1
(g1083
g3
NtRp1418
(dp1419
g1086
(lp1420
g1088
asg12
(tsg974
(lp1421
(lp1422
g1091
aasg1092
(lp1423
(lp1424
g1095
aasg1096
(lp1425
(lp1426
g1414
aasg1099
(lp1427
I00
asg1101
g1102
sg1103
(lp1428
g1105
asbasg1106
I00
sbag1
(g1067
g3
NtRp1429
(dp1430
g1070
(lp1431
F9.9999999999999995e-08
aF1000
asg12
(tsg1072
g1365
sg1073
I01
sg1074
I00
sg1075
I01
sg1076
I00
sg1077
g1365
sg973
g1043
sg13
g1078
sg1081
(lp1432
g1
(g1083
g3
NtRp1433
(dp1434
g1086
(lp1435
g1088
asg12
(tsg974
(lp1436
(lp1437
g1091
aasg1092
(lp1438
(lp1439
g1095
aasg1096
(lp1440
(lp1441
g1429
aasg1099
(lp1442
I00
asg1101
g1102
sg1103
(lp1443
g1105
asbasg1106
I00
sbag1
(g1067
g3
NtRp1444
(dp1445
g1070
(lp1446
F9.9999999999999995e-08
aF1000
asg12
(tsg1072
g1365
sg1073
I01
sg1074
I00
sg1075
I01
sg1076
I00
sg1077
g1365
sg973
g1043
sg13
g1078
sg1081
(lp1447
g1
(g1083
g3
NtRp1448
(dp1449
g1086
(lp1450
g1088
asg12
(tsg974
(lp1451
(lp1452
g1091
aasg1092
(lp1453
(lp1454
g1095
aasg1096
(lp1455
(lp1456
g1444
aasg1099
(lp1457
I00
asg1101
g1102
sg1103
(lp1458
g1105
asbasg1106
I00
sbag1
(g1067
g3
NtRp1459
(dp1460
g1070
(lp1461
F9.9999999999999995e-08
aF1000
asg12
(tsg1072
g1365
sg1073
I01
sg1074
I00
sg1075
I01
sg1076
I00
sg1077
g1365
sg973
g1043
sg13
g1078
sg1081
(lp1462
g1
(g1083
g3
NtRp1463
(dp1464
g1086
(lp1465
g1088
asg12
(tsg974
(lp1466
(lp1467
g1091
aasg1092
(lp1468
(lp1469
g1095
aasg1096
(lp1470
(lp1471
g1459
aasg1099
(lp1472
I00
asg1101
g1102
sg1103
(lp1473
g1105
asbasg1106
I00
sbag1
(g1067
g3
NtRp1474
(dp1475
g1070
(lp1476
F9.9999999999999995e-08
aF1000
asg12
(tsg1072
g1365
sg1073
I01
sg1074
I00
sg1075
I01
sg1076
I00
sg1077
g1365
sg973
g1185
sg13
g1186
sg1081
(lp1477
g1
(g1083
g3
NtRp1478
(dp1479
g1086
(lp1480
g1193
asg12
(tsg974
(lp1481
(lp1482
g1196
aasg1092
(lp1483
(lp1484
g1199
aasg1096
(lp1485
(lp1486
g1474
aasg1099
(lp1487
I00
asg1101
g1203
sg1103
(lp1488
g1205
asbasg1106
I00
sbag1
(g1067
g3
NtRp1489
(dp1490
g1070
(lp1491
F9.9999999999999995e-08
aF1000
asg12
(tsg1072
g1365
sg1073
I01
sg1074
I00
sg1075
I01
sg1076
I00
sg1077
g1365
sg973
g1185
sg13
g1186
sg1081
(lp1492
g1
(g1083
g3
NtRp1493
(dp1494
g1086
(lp1495
g1193
asg12
(tsg974
(lp1496
(lp1497
g1196
aasg1092
(lp1498
(lp1499
g1199
aasg1096
(lp1500
(lp1501
g1489
aasg1099
(lp1502
I00
asg1101
g1203
sg1103
(lp1503
g1205
asbasg1106
I00
sbag1
(g1067
g3
NtRp1504
(dp1505
g1070
(lp1506
F9.9999999999999995e-08
aF1000
asg12
(tsg1072
g1365
sg1073
I01
sg1074
I00
sg1075
I01
sg1076
I00
sg1077
g1365
sg973
g1185
sg13
g1186
sg1081
(lp1507
g1
(g1083
g3
NtRp1508
(dp1509
g1086
(lp1510
g1193
asg12
(tsg974
(lp1511
(lp1512
g1196
aasg1092
(lp1513
(lp1514
g1199
aasg1096
(lp1515
(lp1516
g1504
aasg1099
(lp1517
I00
asg1101
g1203
sg1103
(lp1518
g1205
asbasg1106
I00
sbag1
(g1067
g3
NtRp1519
(dp1520
g1070
(lp1521
F9.9999999999999995e-08
aF1000
asg12
(tsg1072
g1365
sg1073
I01
sg1074
I00
sg1075
I01
sg1076
I00
sg1077
g1365
sg973
g1185
sg13
g1186
sg1081
(lp1522
g1
(g1083
g3
NtRp1523
(dp1524
g1086
(lp1525
g1193
asg12
(tsg974
(lp1526
(lp1527
g1196
aasg1092
(lp1528
(lp1529
g1199
aasg1096
(lp1530
(lp1531
g1519
aasg1099
(lp1532
I00
asg1101
g1203
sg1103
(lp1533
g1205
asbasg1106
I00
sbag1
(g1067
g3
NtRp1534
(dp1535
g1070
(lp1536
F9.9999999999999995e-08
aF1000
asg12
(tsg1072
g1365
sg1073
I01
sg1074
I00
sg1075
I01
sg1076
I00
sg1077
g1365
sg973
g1185
sg13
g1186
sg1081
(lp1537
g1
(g1083
g3
NtRp1538
(dp1539
g1086
(lp1540
g1193
asg12
(tsg974
(lp1541
(lp1542
g1196
aasg1092
(lp1543
(lp1544
g1199
aasg1096
(lp1545
(lp1546
g1534
aasg1099
(lp1547
I00
asg1101
g1203
sg1103
(lp1548
g1205
asbasg1106
I00
sbag1
(g1067
g3
NtRp1549
(dp1550
g1070
(lp1551
F9.9999999999999995e-08
aF1000
asg12
(tsg1072
g1365
sg1073
I01
sg1074
I00
sg1075
I01
sg1076
I00
sg1077
g1365
sg973
g1185
sg13
g1186
sg1081
(lp1552
g1
(g1083
g3
NtRp1553
(dp1554
g1086
(lp1555
g1193
asg12
(tsg974
(lp1556
(lp1557
g1196
aasg1092
(lp1558
(lp1559
g1199
aasg1096
(lp1560
(lp1561
g1549
aasg1099
(lp1562
I00
asg1101
g1203
sg1103
(lp1563
g1205
asbasg1106
I00
sbag1
(g1067
g3
NtRp1564
(dp1565
g1070
(lp1566
F9.9999999999999995e-08
aF1000
asg12
(tsg1072
g1365
sg1073
I01
sg1074
I00
sg1075
I01
sg1076
I00
sg1077
g1365
sg973
g1185
sg13
g1186
sg1081
(lp1567
g1
(g1083
g3
NtRp1568
(dp1569
g1086
(lp1570
g1193
asg12
(tsg974
(lp1571
(lp1572
g1196
aasg1092
(lp1573
(lp1574
g1199
aasg1096
(lp1575
(lp1576
g1564
aasg1099
(lp1577
I00
asg1101
g1203
sg1103
(lp1578
g1205
asbasg1106
I00
sbag1
(g1067
g3
NtRp1579
(dp1580
g1070
(lp1581
F9.9999999999999995e-08
aF1000
asg12
(tsg1072
g1365
sg1073
I01
sg1074
I00
sg1075
I01
sg1076
I00
sg1077
g1365
sg973
g1185
sg13
g1186
sg1081
(lp1582
g1
(g1083
g3
NtRp1583
(dp1584
g1086
(lp1585
g1193
asg12
(tsg974
(lp1586
(lp1587
g1196
aasg1092
(lp1588
(lp1589
g1199
aasg1096
(lp1590
(lp1591
g1579
aasg1099
(lp1592
I00
asg1101
g1203
sg1103
(lp1593
g1205
asbasg1106
I00
sbag1
(g1067
g3
NtRp1594
(dp1595
g1070
(lp1596
F9.9999999999999995e-08
aF1000
asg12
(tsg1072
g1365
sg1073
I01
sg1074
I00
sg1075
I01
sg1076
I00
sg1077
g1365
sg973
g1314
sg13
g1315
sg1081
(lp1597
g1
(g1083
g3
NtRp1598
(dp1599
g1086
(lp1600
g1322
asg12
(tsg974
(lp1601
(lp1602
g1106
aasg1092
(lp1603
(lp1604
g1327
aasg1096
(lp1605
(lp1606
g1594
aasg1099
(lp1607
I00
asg1101
g1331
sg1103
(lp1608
g1333
asbasg1106
I00
sbag1
(g1067
g3
NtRp1609
(dp1610
g1070
(lp1611
F9.9999999999999995e-08
aF1000
asg12
(tsg1072
g1365
sg1073
I01
sg1074
I00
sg1075
I01
sg1076
I00
sg1077
g1365
sg973
g1314
sg13
g1315
sg1081
(lp1612
g1
(g1083
g3
NtRp1613
(dp1614
g1086
(lp1615
g1322
asg12
(tsg974
(lp1616
(lp1617
g1106
aasg1092
(lp1618
(lp1619
g1327
aasg1096
(lp1620
(lp1621
g1609
aasg1099
(lp1622
I00
asg1101
g1331
sg1103
(lp1623
g1333
asbasg1106
I00
sbag1
(g1067
g3
NtRp1624
(dp1625
g1070
(lp1626
F9.9999999999999995e-08
aF1000
asg12
(tsg1072
g1365
sg1073
I01
sg1074
I00
sg1075
I01
sg1076
I00
sg1077
g1365
sg973
g1314
sg13
g1315
sg1081
(lp1627
g1
(g1083
g3
NtRp1628
(dp1629
g1086
(lp1630
g1322
asg12
(tsg974
(lp1631
(lp1632
g1106
aasg1092
(lp1633
(lp1634
g1327
aasg1096
(lp1635
(lp1636
g1624
aasg1099
(lp1637
I00
asg1101
g1331
sg1103
(lp1638
g1333
asbasg1106
I00
sbastRp1639
g1639
bbag1
(g1035
g3
NtRp1640
g1
(g5
g6
(dp1641
g8
g1
(g9
g3
NtRp1642
(dp1643
g12
(tsg13
g14
sg16
g1035
sg17
g18
sbsg19
S'inverse-dimerization of AraC2'
p1644
sg29
(lp1645
sg31
g4
sg32
I01
sg33
(lp1646
sg1043
S'eta_A'
p1647
sg1045
(lp1648
(S'AraC2'
I1
tp1649
asg1047
g1048
sg88
(lp1650
sg91
(lp1651
sg57
(lp1652
sg71
(lp1653
sg1053
(lp1654
(g962
I2
tp1655
asg1058
g1059
sg1060
F1.0000000000000001e-30
sg64
g1061
sg1062
Nsg68
(lp1656
sg70
Nsg1064
F1
sg127
(lp1657
g1642
asg190
(lp1658
g1
(g1067
g3
NtRp1659
(dp1660
g1070
(lp1661
F9.9999999999999995e-08
aF1000
asg12
(tsg1072
g1640
sg1073
I01
sg1074
I00
sg1075
I01
sg1076
I00
sg1077
g1640
sg973
g1043
sg13
g1078
sg1081
(lp1662
g1
(g1083
g3
NtRp1663
(dp1664
g1086
(lp1665
g1088
asg12
(tsg974
(lp1666
(lp1667
g1091
aasg1092
(lp1668
(lp1669
g1095
aasg1096
(lp1670
(lp1671
g1659
aasg1099
(lp1672
I00
asg1101
g1102
sg1103
(lp1673
g1105
asbasg1106
I00
sbag1
(g1067
g3
NtRp1674
(dp1675
g1070
(lp1676
F9.9999999999999995e-08
aF1000
asg12
(tsg1072
g1640
sg1073
I01
sg1074
I00
sg1075
I01
sg1076
I00
sg1077
g1640
sg973
g1043
sg13
g1078
sg1081
(lp1677
g1
(g1083
g3
NtRp1678
(dp1679
g1086
(lp1680
g1088
asg12
(tsg974
(lp1681
(lp1682
g1091
aasg1092
(lp1683
(lp1684
g1095
aasg1096
(lp1685
(lp1686
g1674
aasg1099
(lp1687
I00
asg1101
g1102
sg1103
(lp1688
g1105
asbasg1106
I00
sbag1
(g1067
g3
NtRp1689
(dp1690
g1070
(lp1691
F9.9999999999999995e-08
aF1000
asg12
(tsg1072
g1640
sg1073
I01
sg1074
I00
sg1075
I01
sg1076
I00
sg1077
g1640
sg973
g1043
sg13
g1078
sg1081
(lp1692
g1
(g1083
g3
NtRp1693
(dp1694
g1086
(lp1695
g1088
asg12
(tsg974
(lp1696
(lp1697
g1091
aasg1092
(lp1698
(lp1699
g1095
aasg1096
(lp1700
(lp1701
g1689
aasg1099
(lp1702
I00
asg1101
g1102
sg1103
(lp1703
g1105
asbasg1106
I00
sbag1
(g1067
g3
NtRp1704
(dp1705
g1070
(lp1706
F9.9999999999999995e-08
aF1000
asg12
(tsg1072
g1640
sg1073
I01
sg1074
I00
sg1075
I01
sg1076
I00
sg1077
g1640
sg973
g1043
sg13
g1078
sg1081
(lp1707
g1
(g1083
g3
NtRp1708
(dp1709
g1086
(lp1710
g1088
asg12
(tsg974
(lp1711
(lp1712
g1091
aasg1092
(lp1713
(lp1714
g1095
aasg1096
(lp1715
(lp1716
g1704
aasg1099
(lp1717
I00
asg1101
g1102
sg1103
(lp1718
g1105
asbasg1106
I00
sbag1
(g1067
g3
NtRp1719
(dp1720
g1070
(lp1721
F9.9999999999999995e-08
aF1000
asg12
(tsg1072
g1640
sg1073
I01
sg1074
I00
sg1075
I01
sg1076
I00
sg1077
g1640
sg973
g1043
sg13
g1078
sg1081
(lp1722
g1
(g1083
g3
NtRp1723
(dp1724
g1086
(lp1725
g1088
asg12
(tsg974
(lp1726
(lp1727
g1091
aasg1092
(lp1728
(lp1729
g1095
aasg1096
(lp1730
(lp1731
g1719
aasg1099
(lp1732
I00
asg1101
g1102
sg1103
(lp1733
g1105
asbasg1106
I00
sbag1
(g1067
g3
NtRp1734
(dp1735
g1070
(lp1736
F9.9999999999999995e-08
aF1000
asg12
(tsg1072
g1640
sg1073
I01
sg1074
I00
sg1075
I01
sg1076
I00
sg1077
g1640
sg973
g1043
sg13
g1078
sg1081
(lp1737
g1
(g1083
g3
NtRp1738
(dp1739
g1086
(lp1740
g1088
asg12
(tsg974
(lp1741
(lp1742
g1091
aasg1092
(lp1743
(lp1744
g1095
aasg1096
(lp1745
(lp1746
g1734
aasg1099
(lp1747
I00
asg1101
g1102
sg1103
(lp1748
g1105
asbasg1106
I00
sbag1
(g1067
g3
NtRp1749
(dp1750
g1070
(lp1751
F9.9999999999999995e-08
aF1000
asg12
(tsg1072
g1640
sg1073
I01
sg1074
I00
sg1075
I01
sg1076
I00
sg1077
g1640
sg973
g1185
sg13
g1186
sg1081
(lp1752
g1
(g1083
g3
NtRp1753
(dp1754
g1086
(lp1755
g1193
asg12
(tsg974
(lp1756
(lp1757
g1196
aasg1092
(lp1758
(lp1759
g1199
aasg1096
(lp1760
(lp1761
g1749
aasg1099
(lp1762
I00
asg1101
g1203
sg1103
(lp1763
g1205
asbasg1106
I00
sbag1
(g1067
g3
NtRp1764
(dp1765
g1070
(lp1766
F9.9999999999999995e-08
aF1000
asg12
(tsg1072
g1640
sg1073
I01
sg1074
I00
sg1075
I01
sg1076
I00
sg1077
g1640
sg973
g1185
sg13
g1186
sg1081
(lp1767
g1
(g1083
g3
NtRp1768
(dp1769
g1086
(lp1770
g1193
asg12
(tsg974
(lp1771
(lp1772
g1196
aasg1092
(lp1773
(lp1774
g1199
aasg1096
(lp1775
(lp1776
g1764
aasg1099
(lp1777
I00
asg1101
g1203
sg1103
(lp1778
g1205
asbasg1106
I00
sbag1
(g1067
g3
NtRp1779
(dp1780
g1070
(lp1781
F9.9999999999999995e-08
aF1000
asg12
(tsg1072
g1640
sg1073
I01
sg1074
I00
sg1075
I01
sg1076
I00
sg1077
g1640
sg973
g1185
sg13
g1186
sg1081
(lp1782
g1
(g1083
g3
NtRp1783
(dp1784
g1086
(lp1785
g1193
asg12
(tsg974
(lp1786
(lp1787
g1196
aasg1092
(lp1788
(lp1789
g1199
aasg1096
(lp1790
(lp1791
g1779
aasg1099
(lp1792
I00
asg1101
g1203
sg1103
(lp1793
g1205
asbasg1106
I00
sbag1
(g1067
g3
NtRp1794
(dp1795
g1070
(lp1796
F9.9999999999999995e-08
aF1000
asg12
(tsg1072
g1640
sg1073
I01
sg1074
I00
sg1075
I01
sg1076
I00
sg1077
g1640
sg973
g1185
sg13
g1186
sg1081
(lp1797
g1
(g1083
g3
NtRp1798
(dp1799
g1086
(lp1800
g1193
asg12
(tsg974
(lp1801
(lp1802
g1196
aasg1092
(lp1803
(lp1804
g1199
aasg1096
(lp1805
(lp1806
g1794
aasg1099
(lp1807
I00
asg1101
g1203
sg1103
(lp1808
g1205
asbasg1106
I00
sbag1
(g1067
g3
NtRp1809
(dp1810
g1070
(lp1811
F9.9999999999999995e-08
aF1000
asg12
(tsg1072
g1640
sg1073
I01
sg1074
I00
sg1075
I01
sg1076
I00
sg1077
g1640
sg973
g1185
sg13
g1186
sg1081
(lp1812
g1
(g1083
g3
NtRp1813
(dp1814
g1086
(lp1815
g1193
asg12
(tsg974
(lp1816
(lp1817
g1196
aasg1092
(lp1818
(lp1819
g1199
aasg1096
(lp1820
(lp1821
g1809
aasg1099
(lp1822
I00
asg1101
g1203
sg1103
(lp1823
g1205
asbasg1106
I00
sbag1
(g1067
g3
NtRp1824
(dp1825
g1070
(lp1826
F9.9999999999999995e-08
aF1000
asg12
(tsg1072
g1640
sg1073
I01
sg1074
I00
sg1075
I01
sg1076
I00
sg1077
g1640
sg973
g1185
sg13
g1186
sg1081
(lp1827
g1
(g1083
g3
NtRp1828
(dp1829
g1086
(lp1830
g1193
asg12
(tsg974
(lp1831
(lp1832
g1196
aasg1092
(lp1833
(lp1834
g1199
aasg1096
(lp1835
(lp1836
g1824
aasg1099
(lp1837
I00
asg1101
g1203
sg1103
(lp1838
g1205
asbasg1106
I00
sbag1
(g1067
g3
NtRp1839
(dp1840
g1070
(lp1841
F9.9999999999999995e-08
aF1000
asg12
(tsg1072
g1640
sg1073
I01
sg1074
I00
sg1075
I01
sg1076
I00
sg1077
g1640
sg973
g1185
sg13
g1186
sg1081
(lp1842
g1
(g1083
g3
NtRp1843
(dp1844
g1086
(lp1845
g1193
asg12
(tsg974
(lp1846
(lp1847
g1196
aasg1092
(lp1848
(lp1849
g1199
aasg1096
(lp1850
(lp1851
g1839
aasg1099
(lp1852
I00
asg1101
g1203
sg1103
(lp1853
g1205
asbasg1106
I00
sbag1
(g1067
g3
NtRp1854
(dp1855
g1070
(lp1856
F9.9999999999999995e-08
aF1000
asg12
(tsg1072
g1640
sg1073
I01
sg1074
I00
sg1075
I01
sg1076
I00
sg1077
g1640
sg973
g1185
sg13
g1186
sg1081
(lp1857
g1
(g1083
g3
NtRp1858
(dp1859
g1086
(lp1860
g1193
asg12
(tsg974
(lp1861
(lp1862
g1196
aasg1092
(lp1863
(lp1864
g1199
aasg1096
(lp1865
(lp1866
g1854
aasg1099
(lp1867
I00
asg1101
g1203
sg1103
(lp1868
g1205
asbasg1106
I00
sbag1
(g1067
g3
NtRp1869
(dp1870
g1070
(lp1871
F9.9999999999999995e-08
aF1000
asg12
(tsg1072
g1640
sg1073
I01
sg1074
I00
sg1075
I01
sg1076
I00
sg1077
g1640
sg973
g1314
sg13
g1315
sg1081
(lp1872
g1
(g1083
g3
NtRp1873
(dp1874
g1086
(lp1875
g1322
asg12
(tsg974
(lp1876
(lp1877
g1106
aasg1092
(lp1878
(lp1879
g1327
aasg1096
(lp1880
(lp1881
g1869
aasg1099
(lp1882
I00
asg1101
g1331
sg1103
(lp1883
g1333
asbasg1106
I00
sbag1
(g1067
g3
NtRp1884
(dp1885
g1070
(lp1886
F9.9999999999999995e-08
aF1000
asg12
(tsg1072
g1640
sg1073
I01
sg1074
I00
sg1075
I01
sg1076
I00
sg1077
g1640
sg973
g1314
sg13
g1315
sg1081
(lp1887
g1
(g1083
g3
NtRp1888
(dp1889
g1086
(lp1890
g1322
asg12
(tsg974
(lp1891
(lp1892
g1106
aasg1092
(lp1893
(lp1894
g1327
aasg1096
(lp1895
(lp1896
g1884
aasg1099
(lp1897
I00
asg1101
g1331
sg1103
(lp1898
g1333
asbasg1106
I00
sbag1
(g1067
g3
NtRp1899
(dp1900
g1070
(lp1901
F9.9999999999999995e-08
aF1000
asg12
(tsg1072
g1640
sg1073
I01
sg1074
I00
sg1075
I01
sg1076
I00
sg1077
g1640
sg973
g1314
sg13
g1315
sg1081
(lp1902
g1
(g1083
g3
NtRp1903
(dp1904
g1086
(lp1905
g1322
asg12
(tsg974
(lp1906
(lp1907
g1106
aasg1092
(lp1908
(lp1909
g1327
aasg1096
(lp1910
(lp1911
g1899
aasg1099
(lp1912
I00
asg1101
g1331
sg1103
(lp1913
g1333
asbasg1106
I00
sbastRp1914
g1914
bbag1
(g1035
g3
NtRp1915
g1
(g5
g6
(dp1916
g8
g1
(g9
g3
NtRp1917
(dp1918
g12
(tsg13
g14
sg16
g1035
sg17
g18
sbsg19
S'tetramerization of LacI'
p1919
sg29
(lp1920
sg31
g4
sg32
I01
sg33
(lp1921
sg1043
S'tau_L'
p1922
sg1045
(lp1923
(g960
I4
tp1924
asg1047
g1048
sg88
(lp1925
sg91
(lp1926
sg57
(lp1927
sg71
(lp1928
sg1053
(lp1929
(g963
I1
tp1930
asg1058
g1059
sg1060
F1.0000000000000001e-30
sg64
g1061
sg1062
Nsg68
(lp1931
sg70
Nsg1064
F1
sg127
(lp1932
g1917
asg190
(lp1933
g1
(g1067
g3
NtRp1934
(dp1935
g1070
(lp1936
F9.9999999999999995e-08
aF1000
asg12
(tsg1072
g1915
sg1073
I01
sg1074
I00
sg1075
I01
sg1076
I00
sg1077
g1915
sg973
g1043
sg13
g1078
sg1081
(lp1937
g1
(g1083
g3
NtRp1938
(dp1939
g1086
(lp1940
g1088
asg12
(tsg974
(lp1941
(lp1942
g1091
aasg1092
(lp1943
(lp1944
g1095
aasg1096
(lp1945
(lp1946
g1934
aasg1099
(lp1947
I00
asg1101
g1102
sg1103
(lp1948
g1105
asbasg1106
I00
sbag1
(g1067
g3
NtRp1949
(dp1950
g1070
(lp1951
F9.9999999999999995e-08
aF1000
asg12
(tsg1072
g1915
sg1073
I01
sg1074
I00
sg1075
I01
sg1076
I00
sg1077
g1915
sg973
g1043
sg13
g1078
sg1081
(lp1952
g1
(g1083
g3
NtRp1953
(dp1954
g1086
(lp1955
g1088
asg12
(tsg974
(lp1956
(lp1957
g1091
aasg1092
(lp1958
(lp1959
g1095
aasg1096
(lp1960
(lp1961
g1949
aasg1099
(lp1962
I00
asg1101
g1102
sg1103
(lp1963
g1105
asbasg1106
I00
sbag1
(g1067
g3
NtRp1964
(dp1965
g1070
(lp1966
F9.9999999999999995e-08
aF1000
asg12
(tsg1072
g1915
sg1073
I01
sg1074
I00
sg1075
I01
sg1076
I00
sg1077
g1915
sg973
g1043
sg13
g1078
sg1081
(lp1967
g1
(g1083
g3
NtRp1968
(dp1969
g1086
(lp1970
g1088
asg12
(tsg974
(lp1971
(lp1972
g1091
aasg1092
(lp1973
(lp1974
g1095
aasg1096
(lp1975
(lp1976
g1964
aasg1099
(lp1977
I00
asg1101
g1102
sg1103
(lp1978
g1105
asbasg1106
I00
sbag1
(g1067
g3
NtRp1979
(dp1980
g1070
(lp1981
F9.9999999999999995e-08
aF1000
asg12
(tsg1072
g1915
sg1073
I01
sg1074
I00
sg1075
I01
sg1076
I00
sg1077
g1915
sg973
g1043
sg13
g1078
sg1081
(lp1982
g1
(g1083
g3
NtRp1983
(dp1984
g1086
(lp1985
g1088
asg12
(tsg974
(lp1986
(lp1987
g1091
aasg1092
(lp1988
(lp1989
g1095
aasg1096
(lp1990
(lp1991
g1979
aasg1099
(lp1992
I00
asg1101
g1102
sg1103
(lp1993
g1105
asbasg1106
I00
sbag1
(g1067
g3
NtRp1994
(dp1995
g1070
(lp1996
F9.9999999999999995e-08
aF1000
asg12
(tsg1072
g1915
sg1073
I01
sg1074
I00
sg1075
I01
sg1076
I00
sg1077
g1915
sg973
g1043
sg13
g1078
sg1081
(lp1997
g1
(g1083
g3
NtRp1998
(dp1999
g1086
(lp2000
g1088
asg12
(tsg974
(lp2001
(lp2002
g1091
aasg1092
(lp2003
(lp2004
g1095
aasg1096
(lp2005
(lp2006
g1994
aasg1099
(lp2007
I00
asg1101
g1102
sg1103
(lp2008
g1105
asbasg1106
I00
sbag1
(g1067
g3
NtRp2009
(dp2010
g1070
(lp2011
F9.9999999999999995e-08
aF1000
asg12
(tsg1072
g1915
sg1073
I01
sg1074
I00
sg1075
I01
sg1076
I00
sg1077
g1915
sg973
g1043
sg13
g1078
sg1081
(lp2012
g1
(g1083
g3
NtRp2013
(dp2014
g1086
(lp2015
g1088
asg12
(tsg974
(lp2016
(lp2017
g1091
aasg1092
(lp2018
(lp2019
g1095
aasg1096
(lp2020
(lp2021
g2009
aasg1099
(lp2022
I00
asg1101
g1102
sg1103
(lp2023
g1105
asbasg1106
I00
sbag1
(g1067
g3
NtRp2024
(dp2025
g1070
(lp2026
F9.9999999999999995e-08
aF1000
asg12
(tsg1072
g1915
sg1073
I01
sg1074
I00
sg1075
I01
sg1076
I00
sg1077
g1915
sg973
g1185
sg13
g1186
sg1081
(lp2027
g1
(g1083
g3
NtRp2028
(dp2029
g1086
(lp2030
g1193
asg12
(tsg974
(lp2031
(lp2032
g1196
aasg1092
(lp2033
(lp2034
g1199
aasg1096
(lp2035
(lp2036
g2024
aasg1099
(lp2037
I00
asg1101
g1203
sg1103
(lp2038
g1205
asbasg1106
I00
sbag1
(g1067
g3
NtRp2039
(dp2040
g1070
(lp2041
F9.9999999999999995e-08
aF1000
asg12
(tsg1072
g1915
sg1073
I01
sg1074
I00
sg1075
I01
sg1076
I00
sg1077
g1915
sg973
g1185
sg13
g1186
sg1081
(lp2042
g1
(g1083
g3
NtRp2043
(dp2044
g1086
(lp2045
g1193
asg12
(tsg974
(lp2046
(lp2047
g1196
aasg1092
(lp2048
(lp2049
g1199
aasg1096
(lp2050
(lp2051
g2039
aasg1099
(lp2052
I00
asg1101
g1203
sg1103
(lp2053
g1205
asbasg1106
I00
sbag1
(g1067
g3
NtRp2054
(dp2055
g1070
(lp2056
F9.9999999999999995e-08
aF1000
asg12
(tsg1072
g1915
sg1073
I01
sg1074
I00
sg1075
I01
sg1076
I00
sg1077
g1915
sg973
g1185
sg13
g1186
sg1081
(lp2057
g1
(g1083
g3
NtRp2058
(dp2059
g1086
(lp2060
g1193
asg12
(tsg974
(lp2061
(lp2062
g1196
aasg1092
(lp2063
(lp2064
g1199
aasg1096
(lp2065
(lp2066
g2054
aasg1099
(lp2067
I00
asg1101
g1203
sg1103
(lp2068
g1205
asbasg1106
I00
sbag1
(g1067
g3
NtRp2069
(dp2070
g1070
(lp2071
F9.9999999999999995e-08
aF1000
asg12
(tsg1072
g1915
sg1073
I01
sg1074
I00
sg1075
I01
sg1076
I00
sg1077
g1915
sg973
g1185
sg13
g1186
sg1081
(lp2072
g1
(g1083
g3
NtRp2073
(dp2074
g1086
(lp2075
g1193
asg12
(tsg974
(lp2076
(lp2077
g1196
aasg1092
(lp2078
(lp2079
g1199
aasg1096
(lp2080
(lp2081
g2069
aasg1099
(lp2082
I00
asg1101
g1203
sg1103
(lp2083
g1205
asbasg1106
I00
sbag1
(g1067
g3
NtRp2084
(dp2085
g1070
(lp2086
F9.9999999999999995e-08
aF1000
asg12
(tsg1072
g1915
sg1073
I01
sg1074
I00
sg1075
I01
sg1076
I00
sg1077
g1915
sg973
g1185
sg13
g1186
sg1081
(lp2087
g1
(g1083
g3
NtRp2088
(dp2089
g1086
(lp2090
g1193
asg12
(tsg974
(lp2091
(lp2092
g1196
aasg1092
(lp2093
(lp2094
g1199
aasg1096
(lp2095
(lp2096
g2084
aasg1099
(lp2097
I00
asg1101
g1203
sg1103
(lp2098
g1205
asbasg1106
I00
sbag1
(g1067
g3
NtRp2099
(dp2100
g1070
(lp2101
F9.9999999999999995e-08
aF1000
asg12
(tsg1072
g1915
sg1073
I01
sg1074
I00
sg1075
I01
sg1076
I00
sg1077
g1915
sg973
g1185
sg13
g1186
sg1081
(lp2102
g1
(g1083
g3
NtRp2103
(dp2104
g1086
(lp2105
g1193
asg12
(tsg974
(lp2106
(lp2107
g1196
aasg1092
(lp2108
(lp2109
g1199
aasg1096
(lp2110
(lp2111
g2099
aasg1099
(lp2112
I00
asg1101
g1203
sg1103
(lp2113
g1205
asbasg1106
I00
sbag1
(g1067
g3
NtRp2114
(dp2115
g1070
(lp2116
F9.9999999999999995e-08
aF1000
asg12
(tsg1072
g1915
sg1073
I01
sg1074
I00
sg1075
I01
sg1076
I00
sg1077
g1915
sg973
g1185
sg13
g1186
sg1081
(lp2117
g1
(g1083
g3
NtRp2118
(dp2119
g1086
(lp2120
g1193
asg12
(tsg974
(lp2121
(lp2122
g1196
aasg1092
(lp2123
(lp2124
g1199
aasg1096
(lp2125
(lp2126
g2114
aasg1099
(lp2127
I00
asg1101
g1203
sg1103
(lp2128
g1205
asbasg1106
I00
sbag1
(g1067
g3
NtRp2129
(dp2130
g1070
(lp2131
F9.9999999999999995e-08
aF1000
asg12
(tsg1072
g1915
sg1073
I01
sg1074
I00
sg1075
I01
sg1076
I00
sg1077
g1915
sg973
g1185
sg13
g1186
sg1081
(lp2132
g1
(g1083
g3
NtRp2133
(dp2134
g1086
(lp2135
g1193
asg12
(tsg974
(lp2136
(lp2137
g1196
aasg1092
(lp2138
(lp2139
g1199
aasg1096
(lp2140
(lp2141
g2129
aasg1099
(lp2142
I00
asg1101
g1203
sg1103
(lp2143
g1205
asbasg1106
I00
sbag1
(g1067
g3
NtRp2144
(dp2145
g1070
(lp2146
F9.9999999999999995e-08
aF1000
asg12
(tsg1072
g1915
sg1073
I01
sg1074
I00
sg1075
I01
sg1076
I00
sg1077
g1915
sg973
g1314
sg13
g1315
sg1081
(lp2147
g1
(g1083
g3
NtRp2148
(dp2149
g1086
(lp2150
g1322
asg12
(tsg974
(lp2151
(lp2152
g1106
aasg1092
(lp2153
(lp2154
g1327
aasg1096
(lp2155
(lp2156
g2144
aasg1099
(lp2157
I00
asg1101
g1331
sg1103
(lp2158
g1333
asbasg1106
I00
sbag1
(g1067
g3
NtRp2159
(dp2160
g1070
(lp2161
F9.9999999999999995e-08
aF1000
asg12
(tsg1072
g1915
sg1073
I01
sg1074
I00
sg1075
I01
sg1076
I00
sg1077
g1915
sg973
g1314
sg13
g1315
sg1081
(lp2162
g1
(g1083
g3
NtRp2163
(dp2164
g1086
(lp2165
g1322
asg12
(tsg974
(lp2166
(lp2167
g1106
aasg1092
(lp2168
(lp2169
g1327
aasg1096
(lp2170
(lp2171
g2159
aasg1099
(lp2172
I00
asg1101
g1331
sg1103
(lp2173
g1333
asbasg1106
I00
sbag1
(g1067
g3
NtRp2174
(dp2175
g1070
(lp2176
F9.9999999999999995e-08
aF1000
asg12
(tsg1072
g1915
sg1073
I01
sg1074
I00
sg1075
I01
sg1076
I00
sg1077
g1915
sg973
g1314
sg13
g1315
sg1081
(lp2177
g1
(g1083
g3
NtRp2178
(dp2179
g1086
(lp2180
g1322
asg12
(tsg974
(lp2181
(lp2182
g1106
aasg1092
(lp2183
(lp2184
g1327
aasg1096
(lp2185
(lp2186
g2174
aasg1099
(lp2187
I00
asg1101
g1331
sg1103
(lp2188
g1333
asbasg1106
I00
sbastRp2189
g2189
bbag1
(g1035
g3
NtRp2190
g1
(g5
g6
(dp2191
g8
g1
(g9
g3
NtRp2192
(dp2193
g12
(tsg13
g14
sg16
g1035
sg17
g18
sbsg19
S'inverse-tetramerization of LacI4'
p2194
sg29
(lp2195
sg31
g4
sg32
I01
sg33
(lp2196
sg1043
S'eta_L'
p2197
sg1045
(lp2198
(S'LacI4'
I1
tp2199
asg1047
g1048
sg88
(lp2200
sg91
(lp2201
sg57
(lp2202
sg71
(lp2203
sg1053
(lp2204
(g960
I4
tp2205
asg1058
g1059
sg1060
F1.0000000000000001e-30
sg64
g1061
sg1062
Nsg68
(lp2206
sg70
Nsg1064
F1
sg127
(lp2207
g2192
asg190
(lp2208
g1
(g1067
g3
NtRp2209
(dp2210
g1070
(lp2211
F9.9999999999999995e-08
aF1000
asg12
(tsg1072
g2190
sg1073
I01
sg1074
I00
sg1075
I01
sg1076
I00
sg1077
g2190
sg973
g1043
sg13
g1078
sg1081
(lp2212
g1
(g1083
g3
NtRp2213
(dp2214
g1086
(lp2215
g1088
asg12
(tsg974
(lp2216
(lp2217
g1091
aasg1092
(lp2218
(lp2219
g1095
aasg1096
(lp2220
(lp2221
g2209
aasg1099
(lp2222
I00
asg1101
g1102
sg1103
(lp2223
g1105
asbasg1106
I00
sbag1
(g1067
g3
NtRp2224
(dp2225
g1070
(lp2226
F9.9999999999999995e-08
aF1000
asg12
(tsg1072
g2190
sg1073
I01
sg1074
I00
sg1075
I01
sg1076
I00
sg1077
g2190
sg973
g1043
sg13
g1078
sg1081
(lp2227
g1
(g1083
g3
NtRp2228
(dp2229
g1086
(lp2230
g1088
asg12
(tsg974
(lp2231
(lp2232
g1091
aasg1092
(lp2233
(lp2234
g1095
aasg1096
(lp2235
(lp2236
g2224
aasg1099
(lp2237
I00
asg1101
g1102
sg1103
(lp2238
g1105
asbasg1106
I00
sbag1
(g1067
g3
NtRp2239
(dp2240
g1070
(lp2241
F9.9999999999999995e-08
aF1000
asg12
(tsg1072
g2190
sg1073
I01
sg1074
I00
sg1075
I01
sg1076
I00
sg1077
g2190
sg973
g1043
sg13
g1078
sg1081
(lp2242
g1
(g1083
g3
NtRp2243
(dp2244
g1086
(lp2245
g1088
asg12
(tsg974
(lp2246
(lp2247
g1091
aasg1092
(lp2248
(lp2249
g1095
aasg1096
(lp2250
(lp2251
g2239
aasg1099
(lp2252
I00
asg1101
g1102
sg1103
(lp2253
g1105
asbasg1106
I00
sbag1
(g1067
g3
NtRp2254
(dp2255
g1070
(lp2256
F9.9999999999999995e-08
aF1000
asg12
(tsg1072
g2190
sg1073
I01
sg1074
I00
sg1075
I01
sg1076
I00
sg1077
g2190
sg973
g1043
sg13
g1078
sg1081
(lp2257
g1
(g1083
g3
NtRp2258
(dp2259
g1086
(lp2260
g1088
asg12
(tsg974
(lp2261
(lp2262
g1091
aasg1092
(lp2263
(lp2264
g1095
aasg1096
(lp2265
(lp2266
g2254
aasg1099
(lp2267
I00
asg1101
g1102
sg1103
(lp2268
g1105
asbasg1106
I00
sbag1
(g1067
g3
NtRp2269
(dp2270
g1070
(lp2271
F9.9999999999999995e-08
aF1000
asg12
(tsg1072
g2190
sg1073
I01
sg1074
I00
sg1075
I01
sg1076
I00
sg1077
g2190
sg973
g1043
sg13
g1078
sg1081
(lp2272
g1
(g1083
g3
NtRp2273
(dp2274
g1086
(lp2275
g1088
asg12
(tsg974
(lp2276
(lp2277
g1091
aasg1092
(lp2278
(lp2279
g1095
aasg1096
(lp2280
(lp2281
g2269
aasg1099
(lp2282
I00
asg1101
g1102
sg1103
(lp2283
g1105
asbasg1106
I00
sbag1
(g1067
g3
NtRp2284
(dp2285
g1070
(lp2286
F9.9999999999999995e-08
aF1000
asg12
(tsg1072
g2190
sg1073
I01
sg1074
I00
sg1075
I01
sg1076
I00
sg1077
g2190
sg973
g1043
sg13
g1078
sg1081
(lp2287
g1
(g1083
g3
NtRp2288
(dp2289
g1086
(lp2290
g1088
asg12
(tsg974
(lp2291
(lp2292
g1091
aasg1092
(lp2293
(lp2294
g1095
aasg1096
(lp2295
(lp2296
g2284
aasg1099
(lp2297
I00
asg1101
g1102
sg1103
(lp2298
g1105
asbasg1106
I00
sbag1
(g1067
g3
NtRp2299
(dp2300
g1070
(lp2301
F9.9999999999999995e-08
aF1000
asg12
(tsg1072
g2190
sg1073
I01
sg1074
I00
sg1075
I01
sg1076
I00
sg1077
g2190
sg973
g1185
sg13
g1186
sg1081
(lp2302
g1
(g1083
g3
NtRp2303
(dp2304
g1086
(lp2305
g1193
asg12
(tsg974
(lp2306
(lp2307
g1196
aasg1092
(lp2308
(lp2309
g1199
aasg1096
(lp2310
(lp2311
g2299
aasg1099
(lp2312
I00
asg1101
g1203
sg1103
(lp2313
g1205
asbasg1106
I00
sbag1
(g1067
g3
NtRp2314
(dp2315
g1070
(lp2316
F9.9999999999999995e-08
aF1000
asg12
(tsg1072
g2190
sg1073
I01
sg1074
I00
sg1075
I01
sg1076
I00
sg1077
g2190
sg973
g1185
sg13
g1186
sg1081
(lp2317
g1
(g1083
g3
NtRp2318
(dp2319
g1086
(lp2320
g1193
asg12
(tsg974
(lp2321
(lp2322
g1196
aasg1092
(lp2323
(lp2324
g1199
aasg1096
(lp2325
(lp2326
g2314
aasg1099
(lp2327
I00
asg1101
g1203
sg1103
(lp2328
g1205
asbasg1106
I00
sbag1
(g1067
g3
NtRp2329
(dp2330
g1070
(lp2331
F9.9999999999999995e-08
aF1000
asg12
(tsg1072
g2190
sg1073
I01
sg1074
I00
sg1075
I01
sg1076
I00
sg1077
g2190
sg973
g1185
sg13
g1186
sg1081
(lp2332
g1
(g1083
g3
NtRp2333
(dp2334
g1086
(lp2335
g1193
asg12
(tsg974
(lp2336
(lp2337
g1196
aasg1092
(lp2338
(lp2339
g1199
aasg1096
(lp2340
(lp2341
g2329
aasg1099
(lp2342
I00
asg1101
g1203
sg1103
(lp2343
g1205
asbasg1106
I00
sbag1
(g1067
g3
NtRp2344
(dp2345
g1070
(lp2346
F9.9999999999999995e-08
aF1000
asg12
(tsg1072
g2190
sg1073
I01
sg1074
I00
sg1075
I01
sg1076
I00
sg1077
g2190
sg973
g1185
sg13
g1186
sg1081
(lp2347
g1
(g1083
g3
NtRp2348
(dp2349
g1086
(lp2350
g1193
asg12
(tsg974
(lp2351
(lp2352
g1196
aasg1092
(lp2353
(lp2354
g1199
aasg1096
(lp2355
(lp2356
g2344
aasg1099
(lp2357
I00
asg1101
g1203
sg1103
(lp2358
g1205
asbasg1106
I00
sbag1
(g1067
g3
NtRp2359
(dp2360
g1070
(lp2361
F9.9999999999999995e-08
aF1000
asg12
(tsg1072
g2190
sg1073
I01
sg1074
I00
sg1075
I01
sg1076
I00
sg1077
g2190
sg973
g1185
sg13
g1186
sg1081
(lp2362
g1
(g1083
g3
NtRp2363
(dp2364
g1086
(lp2365
g1193
asg12
(tsg974
(lp2366
(lp2367
g1196
aasg1092
(lp2368
(lp2369
g1199
aasg1096
(lp2370
(lp2371
g2359
aasg1099
(lp2372
I00
asg1101
g1203
sg1103
(lp2373
g1205
asbasg1106
I00
sbag1
(g1067
g3
NtRp2374
(dp2375
g1070
(lp2376
F9.9999999999999995e-08
aF1000
asg12
(tsg1072
g2190
sg1073
I01
sg1074
I00
sg1075
I01
sg1076
I00
sg1077
g2190
sg973
g1185
sg13
g1186
sg1081
(lp2377
g1
(g1083
g3
NtRp2378
(dp2379
g1086
(lp2380
g1193
asg12
(tsg974
(lp2381
(lp2382
g1196
aasg1092
(lp2383
(lp2384
g1199
aasg1096
(lp2385
(lp2386
g2374
aasg1099
(lp2387
I00
asg1101
g1203
sg1103
(lp2388
g1205
asbasg1106
I00
sbag1
(g1067
g3
NtRp2389
(dp2390
g1070
(lp2391
F9.9999999999999995e-08
aF1000
asg12
(tsg1072
g2190
sg1073
I01
sg1074
I00
sg1075
I01
sg1076
I00
sg1077
g2190
sg973
g1185
sg13
g1186
sg1081
(lp2392
g1
(g1083
g3
NtRp2393
(dp2394
g1086
(lp2395
g1193
asg12
(tsg974
(lp2396
(lp2397
g1196
aasg1092
(lp2398
(lp2399
g1199
aasg1096
(lp2400
(lp2401
g2389
aasg1099
(lp2402
I00
asg1101
g1203
sg1103
(lp2403
g1205
asbasg1106
I00
sbag1
(g1067
g3
NtRp2404
(dp2405
g1070
(lp2406
F9.9999999999999995e-08
aF1000
asg12
(tsg1072
g2190
sg1073
I01
sg1074
I00
sg1075
I01
sg1076
I00
sg1077
g2190
sg973
g1185
sg13
g1186
sg1081
(lp2407
g1
(g1083
g3
NtRp2408
(dp2409
g1086
(lp2410
g1193
asg12
(tsg974
(lp2411
(lp2412
g1196
aasg1092
(lp2413
(lp2414
g1199
aasg1096
(lp2415
(lp2416
g2404
aasg1099
(lp2417
I00
asg1101
g1203
sg1103
(lp2418
g1205
asbasg1106
I00
sbag1
(g1067
g3
NtRp2419
(dp2420
g1070
(lp2421
F9.9999999999999995e-08
aF1000
asg12
(tsg1072
g2190
sg1073
I01
sg1074
I00
sg1075
I01
sg1076
I00
sg1077
g2190
sg973
g1314
sg13
g1315
sg1081
(lp2422
g1
(g1083
g3
NtRp2423
(dp2424
g1086
(lp2425
g1322
asg12
(tsg974
(lp2426
(lp2427
g1106
aasg1092
(lp2428
(lp2429
g1327
aasg1096
(lp2430
(lp2431
g2419
aasg1099
(lp2432
I00
asg1101
g1331
sg1103
(lp2433
g1333
asbasg1106
I00
sbag1
(g1067
g3
NtRp2434
(dp2435
g1070
(lp2436
F9.9999999999999995e-08
aF1000
asg12
(tsg1072
g2190
sg1073
I01
sg1074
I00
sg1075
I01
sg1076
I00
sg1077
g2190
sg973
g1314
sg13
g1315
sg1081
(lp2437
g1
(g1083
g3
NtRp2438
(dp2439
g1086
(lp2440
g1322
asg12
(tsg974
(lp2441
(lp2442
g1106
aasg1092
(lp2443
(lp2444
g1327
aasg1096
(lp2445
(lp2446
g2434
aasg1099
(lp2447
I00
asg1101
g1331
sg1103
(lp2448
g1333
asbasg1106
I00
sbag1
(g1067
g3
NtRp2449
(dp2450
g1070
(lp2451
F9.9999999999999995e-08
aF1000
asg12
(tsg1072
g2190
sg1073
I01
sg1074
I00
sg1075
I01
sg1076
I00
sg1077
g2190
sg973
g1314
sg13
g1315
sg1081
(lp2452
g1
(g1083
g3
NtRp2453
(dp2454
g1086
(lp2455
g1322
asg12
(tsg974
(lp2456
(lp2457
g1106
aasg1092
(lp2458
(lp2459
g1327
aasg1096
(lp2460
(lp2461
g2449
aasg1099
(lp2462
I00
asg1101
g1331
sg1103
(lp2463
g1333
asbasg1106
I00
sbastRp2464
g2464
bbag1
(g1035
g3
NtRp2465
g1
(g5
g6
(dp2466
g8
g1
(g9
g3
NtRp2467
(dp2468
g12
(tsg13
g14
sg16
g1035
sg17
g18
sbsg19
S'production of CFP via AHL'
p2469
sg29
(lp2470
sg31
g4
sg32
I01
sg33
(lp2471
sg1043
S'lambda_CA'
p2472
sg1045
(lp2473
sg1047
g1048
sg88
(lp2474
sg91
(lp2475
sg57
(lp2476
sg71
(lp2477
sg1053
(lp2478
(g964
I1
tp2479
asg1058
g1059
sg1060
F1.0000000000000001e-30
sg64
g1061
sg1062
Nsg68
(lp2480
sg70
Nsg1064
F1
sg127
(lp2481
g2467
asg190
(lp2482
g1
(g1067
g3
NtRp2483
(dp2484
g1070
(lp2485
F9.9999999999999995e-08
aF1000
asg12
(tsg1072
g2465
sg1073
I01
sg1074
I00
sg1075
I01
sg1076
I00
sg1077
g2465
sg973
g1043
sg13
g1078
sg1081
(lp2486
g1
(g1083
g3
NtRp2487
(dp2488
g1086
(lp2489
g1088
asg12
(tsg974
(lp2490
(lp2491
g1091
aasg1092
(lp2492
(lp2493
g1095
aasg1096
(lp2494
(lp2495
g2483
aasg1099
(lp2496
I00
asg1101
g1102
sg1103
(lp2497
g1105
asbasg1106
I00
sbag1
(g1067
g3
NtRp2498
(dp2499
g1070
(lp2500
F9.9999999999999995e-08
aF1000
asg12
(tsg1072
g2465
sg1073
I01
sg1074
I00
sg1075
I01
sg1076
I00
sg1077
g2465
sg973
g1043
sg13
g1078
sg1081
(lp2501
g1
(g1083
g3
NtRp2502
(dp2503
g1086
(lp2504
g1088
asg12
(tsg974
(lp2505
(lp2506
g1091
aasg1092
(lp2507
(lp2508
g1095
aasg1096
(lp2509
(lp2510
g2498
aasg1099
(lp2511
I00
asg1101
g1102
sg1103
(lp2512
g1105
asbasg1106
I00
sbag1
(g1067
g3
NtRp2513
(dp2514
g1070
(lp2515
F9.9999999999999995e-08
aF1000
asg12
(tsg1072
g2465
sg1073
I01
sg1074
I00
sg1075
I01
sg1076
I00
sg1077
g2465
sg973
g1043
sg13
g1078
sg1081
(lp2516
g1
(g1083
g3
NtRp2517
(dp2518
g1086
(lp2519
g1088
asg12
(tsg974
(lp2520
(lp2521
g1091
aasg1092
(lp2522
(lp2523
g1095
aasg1096
(lp2524
(lp2525
g2513
aasg1099
(lp2526
I00
asg1101
g1102
sg1103
(lp2527
g1105
asbasg1106
I00
sbag1
(g1067
g3
NtRp2528
(dp2529
g1070
(lp2530
F9.9999999999999995e-08
aF1000
asg12
(tsg1072
g2465
sg1073
I01
sg1074
I00
sg1075
I01
sg1076
I00
sg1077
g2465
sg973
g1043
sg13
g1078
sg1081
(lp2531
g1
(g1083
g3
NtRp2532
(dp2533
g1086
(lp2534
g1088
asg12
(tsg974
(lp2535
(lp2536
g1091
aasg1092
(lp2537
(lp2538
g1095
aasg1096
(lp2539
(lp2540
g2528
aasg1099
(lp2541
I00
asg1101
g1102
sg1103
(lp2542
g1105
asbasg1106
I00
sbag1
(g1067
g3
NtRp2543
(dp2544
g1070
(lp2545
F9.9999999999999995e-08
aF1000
asg12
(tsg1072
g2465
sg1073
I01
sg1074
I00
sg1075
I01
sg1076
I00
sg1077
g2465
sg973
g1043
sg13
g1078
sg1081
(lp2546
g1
(g1083
g3
NtRp2547
(dp2548
g1086
(lp2549
g1088
asg12
(tsg974
(lp2550
(lp2551
g1091
aasg1092
(lp2552
(lp2553
g1095
aasg1096
(lp2554
(lp2555
g2543
aasg1099
(lp2556
I00
asg1101
g1102
sg1103
(lp2557
g1105
asbasg1106
I00
sbag1
(g1067
g3
NtRp2558
(dp2559
g1070
(lp2560
F9.9999999999999995e-08
aF1000
asg12
(tsg1072
g2465
sg1073
I01
sg1074
I00
sg1075
I01
sg1076
I00
sg1077
g2465
sg973
g1043
sg13
g1078
sg1081
(lp2561
g1
(g1083
g3
NtRp2562
(dp2563
g1086
(lp2564
g1088
asg12
(tsg974
(lp2565
(lp2566
g1091
aasg1092
(lp2567
(lp2568
g1095
aasg1096
(lp2569
(lp2570
g2558
aasg1099
(lp2571
I00
asg1101
g1102
sg1103
(lp2572
g1105
asbasg1106
I00
sbag1
(g1067
g3
NtRp2573
(dp2574
g1070
(lp2575
F9.9999999999999995e-08
aF1000
asg12
(tsg1072
g2465
sg1073
I01
sg1074
I00
sg1075
I01
sg1076
I00
sg1077
g2465
sg973
g1185
sg13
g1186
sg1081
(lp2576
g1
(g1083
g3
NtRp2577
(dp2578
g1086
(lp2579
g1193
asg12
(tsg974
(lp2580
(lp2581
g1196
aasg1092
(lp2582
(lp2583
g1199
aasg1096
(lp2584
(lp2585
g2573
aasg1099
(lp2586
I00
asg1101
g1203
sg1103
(lp2587
g1205
asbasg1106
I00
sbag1
(g1067
g3
NtRp2588
(dp2589
g1070
(lp2590
F9.9999999999999995e-08
aF1000
asg12
(tsg1072
g2465
sg1073
I01
sg1074
I00
sg1075
I01
sg1076
I00
sg1077
g2465
sg973
g1185
sg13
g1186
sg1081
(lp2591
g1
(g1083
g3
NtRp2592
(dp2593
g1086
(lp2594
g1193
asg12
(tsg974
(lp2595
(lp2596
g1196
aasg1092
(lp2597
(lp2598
g1199
aasg1096
(lp2599
(lp2600
g2588
aasg1099
(lp2601
I00
asg1101
g1203
sg1103
(lp2602
g1205
asbasg1106
I00
sbag1
(g1067
g3
NtRp2603
(dp2604
g1070
(lp2605
F9.9999999999999995e-08
aF1000
asg12
(tsg1072
g2465
sg1073
I01
sg1074
I00
sg1075
I01
sg1076
I00
sg1077
g2465
sg973
g1185
sg13
g1186
sg1081
(lp2606
g1
(g1083
g3
NtRp2607
(dp2608
g1086
(lp2609
g1193
asg12
(tsg974
(lp2610
(lp2611
g1196
aasg1092
(lp2612
(lp2613
g1199
aasg1096
(lp2614
(lp2615
g2603
aasg1099
(lp2616
I00
asg1101
g1203
sg1103
(lp2617
g1205
asbasg1106
I00
sbag1
(g1067
g3
NtRp2618
(dp2619
g1070
(lp2620
F9.9999999999999995e-08
aF1000
asg12
(tsg1072
g2465
sg1073
I01
sg1074
I00
sg1075
I01
sg1076
I00
sg1077
g2465
sg973
g1185
sg13
g1186
sg1081
(lp2621
g1
(g1083
g3
NtRp2622
(dp2623
g1086
(lp2624
g1193
asg12
(tsg974
(lp2625
(lp2626
g1196
aasg1092
(lp2627
(lp2628
g1199
aasg1096
(lp2629
(lp2630
g2618
aasg1099
(lp2631
I00
asg1101
g1203
sg1103
(lp2632
g1205
asbasg1106
I00
sbag1
(g1067
g3
NtRp2633
(dp2634
g1070
(lp2635
F9.9999999999999995e-08
aF1000
asg12
(tsg1072
g2465
sg1073
I01
sg1074
I00
sg1075
I01
sg1076
I00
sg1077
g2465
sg973
g1185
sg13
g1186
sg1081
(lp2636
g1
(g1083
g3
NtRp2637
(dp2638
g1086
(lp2639
g1193
asg12
(tsg974
(lp2640
(lp2641
g1196
aasg1092
(lp2642
(lp2643
g1199
aasg1096
(lp2644
(lp2645
g2633
aasg1099
(lp2646
I00
asg1101
g1203
sg1103
(lp2647
g1205
asbasg1106
I00
sbag1
(g1067
g3
NtRp2648
(dp2649
g1070
(lp2650
F9.9999999999999995e-08
aF1000
asg12
(tsg1072
g2465
sg1073
I01
sg1074
I00
sg1075
I01
sg1076
I00
sg1077
g2465
sg973
g1185
sg13
g1186
sg1081
(lp2651
g1
(g1083
g3
NtRp2652
(dp2653
g1086
(lp2654
g1193
asg12
(tsg974
(lp2655
(lp2656
g1196
aasg1092
(lp2657
(lp2658
g1199
aasg1096
(lp2659
(lp2660
g2648
aasg1099
(lp2661
I00
asg1101
g1203
sg1103
(lp2662
g1205
asbasg1106
I00
sbag1
(g1067
g3
NtRp2663
(dp2664
g1070
(lp2665
F9.9999999999999995e-08
aF1000
asg12
(tsg1072
g2465
sg1073
I01
sg1074
I00
sg1075
I01
sg1076
I00
sg1077
g2465
sg973
g1185
sg13
g1186
sg1081
(lp2666
g1
(g1083
g3
NtRp2667
(dp2668
g1086
(lp2669
g1193
asg12
(tsg974
(lp2670
(lp2671
g1196
aasg1092
(lp2672
(lp2673
g1199
aasg1096
(lp2674
(lp2675
g2663
aasg1099
(lp2676
I00
asg1101
g1203
sg1103
(lp2677
g1205
asbasg1106
I00
sbag1
(g1067
g3
NtRp2678
(dp2679
g1070
(lp2680
F9.9999999999999995e-08
aF1000
asg12
(tsg1072
g2465
sg1073
I01
sg1074
I00
sg1075
I01
sg1076
I00
sg1077
g2465
sg973
g1185
sg13
g1186
sg1081
(lp2681
g1
(g1083
g3
NtRp2682
(dp2683
g1086
(lp2684
g1193
asg12
(tsg974
(lp2685
(lp2686
g1196
aasg1092
(lp2687
(lp2688
g1199
aasg1096
(lp2689
(lp2690
g2678
aasg1099
(lp2691
I00
asg1101
g1203
sg1103
(lp2692
g1205
asbasg1106
I00
sbag1
(g1067
g3
NtRp2693
(dp2694
g1070
(lp2695
F9.9999999999999995e-08
aF1000
asg12
(tsg1072
g2465
sg1073
I01
sg1074
I00
sg1075
I01
sg1076
I00
sg1077
g2465
sg973
g1314
sg13
g1315
sg1081
(lp2696
g1
(g1083
g3
NtRp2697
(dp2698
g1086
(lp2699
g1322
asg12
(tsg974
(lp2700
(lp2701
g1106
aasg1092
(lp2702
(lp2703
g1327
aasg1096
(lp2704
(lp2705
g2693
aasg1099
(lp2706
I00
asg1101
g1331
sg1103
(lp2707
g1333
asbasg1106
I00
sbag1
(g1067
g3
NtRp2708
(dp2709
g1070
(lp2710
F9.9999999999999995e-08
aF1000
asg12
(tsg1072
g2465
sg1073
I01
sg1074
I00
sg1075
I01
sg1076
I00
sg1077
g2465
sg973
g1314
sg13
g1315
sg1081
(lp2711
g1
(g1083
g3
NtRp2712
(dp2713
g1086
(lp2714
g1322
asg12
(tsg974
(lp2715
(lp2716
g1106
aasg1092
(lp2717
(lp2718
g1327
aasg1096
(lp2719
(lp2720
g2708
aasg1099
(lp2721
I00
asg1101
g1331
sg1103
(lp2722
g1333
asbasg1106
I00
sbag1
(g1067
g3
NtRp2723
(dp2724
g1070
(lp2725
F9.9999999999999995e-08
aF1000
asg12
(tsg1072
g2465
sg1073
I01
sg1074
I00
sg1075
I01
sg1076
I00
sg1077
g2465
sg973
g1314
sg13
g1315
sg1081
(lp2726
g1
(g1083
g3
NtRp2727
(dp2728
g1086
(lp2729
g1322
asg12
(tsg974
(lp2730
(lp2731
g1106
aasg1092
(lp2732
(lp2733
g1327
aasg1096
(lp2734
(lp2735
g2723
aasg1099
(lp2736
I00
asg1101
g1331
sg1103
(lp2737
g1333
asbasg1106
I00
sbastRp2738
g2738
bbag1
(g1035
g3
NtRp2739
g1
(g5
g6
(dp2740
g8
g1
(g9
g3
NtRp2741
(dp2742
g12
(tsg13
g14
sg16
g1035
sg17
g18
sbsg19
S'basal CFP production'
p2743
sg29
(lp2744
sg31
g4
sg32
I01
sg33
(lp2745
sg1043
S'lambda_C'
p2746
sg1045
(lp2747
sg1047
g1048
sg88
(lp2748
sg91
(lp2749
sg57
(lp2750
sg71
(lp2751
sg1053
(lp2752
(S'CFP'
I1
tp2753
asg1058
g1059
sg1060
F1.0000000000000001e-30
sg64
g1061
sg1062
Nsg68
(lp2754
sg70
Nsg1064
F1
sg127
(lp2755
g2741
asg190
(lp2756
g1
(g1067
g3
NtRp2757
(dp2758
g1070
(lp2759
F9.9999999999999995e-08
aF1000
asg12
(tsg1072
g2739
sg1073
I01
sg1074
I00
sg1075
I01
sg1076
I00
sg1077
g2739
sg973
g1043
sg13
g1078
sg1081
(lp2760
g1
(g1083
g3
NtRp2761
(dp2762
g1086
(lp2763
g1088
asg12
(tsg974
(lp2764
(lp2765
g1091
aasg1092
(lp2766
(lp2767
g1095
aasg1096
(lp2768
(lp2769
g2757
aasg1099
(lp2770
I00
asg1101
g1102
sg1103
(lp2771
g1105
asbasg1106
I00
sbag1
(g1067
g3
NtRp2772
(dp2773
g1070
(lp2774
F9.9999999999999995e-08
aF1000
asg12
(tsg1072
g2739
sg1073
I01
sg1074
I00
sg1075
I01
sg1076
I00
sg1077
g2739
sg973
g1043
sg13
g1078
sg1081
(lp2775
g1
(g1083
g3
NtRp2776
(dp2777
g1086
(lp2778
g1088
asg12
(tsg974
(lp2779
(lp2780
g1091
aasg1092
(lp2781
(lp2782
g1095
aasg1096
(lp2783
(lp2784
g2772
aasg1099
(lp2785
I00
asg1101
g1102
sg1103
(lp2786
g1105
asbasg1106
I00
sbag1
(g1067
g3
NtRp2787
(dp2788
g1070
(lp2789
F9.9999999999999995e-08
aF1000
asg12
(tsg1072
g2739
sg1073
I01
sg1074
I00
sg1075
I01
sg1076
I00
sg1077
g2739
sg973
g1043
sg13
g1078
sg1081
(lp2790
g1
(g1083
g3
NtRp2791
(dp2792
g1086
(lp2793
g1088
asg12
(tsg974
(lp2794
(lp2795
g1091
aasg1092
(lp2796
(lp2797
g1095
aasg1096
(lp2798
(lp2799
g2787
aasg1099
(lp2800
I00
asg1101
g1102
sg1103
(lp2801
g1105
asbasg1106
I00
sbag1
(g1067
g3
NtRp2802
(dp2803
g1070
(lp2804
F9.9999999999999995e-08
aF1000
asg12
(tsg1072
g2739
sg1073
I01
sg1074
I00
sg1075
I01
sg1076
I00
sg1077
g2739
sg973
g1043
sg13
g1078
sg1081
(lp2805
g1
(g1083
g3
NtRp2806
(dp2807
g1086
(lp2808
g1088
asg12
(tsg974
(lp2809
(lp2810
g1091
aasg1092
(lp2811
(lp2812
g1095
aasg1096
(lp2813
(lp2814
g2802
aasg1099
(lp2815
I00
asg1101
g1102
sg1103
(lp2816
g1105
asbasg1106
I00
sbag1
(g1067
g3
NtRp2817
(dp2818
g1070
(lp2819
F9.9999999999999995e-08
aF1000
asg12
(tsg1072
g2739
sg1073
I01
sg1074
I00
sg1075
I01
sg1076
I00
sg1077
g2739
sg973
g1043
sg13
g1078
sg1081
(lp2820
g1
(g1083
g3
NtRp2821
(dp2822
g1086
(lp2823
g1088
asg12
(tsg974
(lp2824
(lp2825
g1091
aasg1092
(lp2826
(lp2827
g1095
aasg1096
(lp2828
(lp2829
g2817
aasg1099
(lp2830
I00
asg1101
g1102
sg1103
(lp2831
g1105
asbasg1106
I00
sbag1
(g1067
g3
NtRp2832
(dp2833
g1070
(lp2834
F9.9999999999999995e-08
aF1000
asg12
(tsg1072
g2739
sg1073
I01
sg1074
I00
sg1075
I01
sg1076
I00
sg1077
g2739
sg973
g1043
sg13
g1078
sg1081
(lp2835
g1
(g1083
g3
NtRp2836
(dp2837
g1086
(lp2838
g1088
asg12
(tsg974
(lp2839
(lp2840
g1091
aasg1092
(lp2841
(lp2842
g1095
aasg1096
(lp2843
(lp2844
g2832
aasg1099
(lp2845
I00
asg1101
g1102
sg1103
(lp2846
g1105
asbasg1106
I00
sbag1
(g1067
g3
NtRp2847
(dp2848
g1070
(lp2849
F9.9999999999999995e-08
aF1000
asg12
(tsg1072
g2739
sg1073
I01
sg1074
I00
sg1075
I01
sg1076
I00
sg1077
g2739
sg973
g1185
sg13
g1186
sg1081
(lp2850
g1
(g1083
g3
NtRp2851
(dp2852
g1086
(lp2853
g1193
asg12
(tsg974
(lp2854
(lp2855
g1196
aasg1092
(lp2856
(lp2857
g1199
aasg1096
(lp2858
(lp2859
g2847
aasg1099
(lp2860
I00
asg1101
g1203
sg1103
(lp2861
g1205
asbasg1106
I00
sbag1
(g1067
g3
NtRp2862
(dp2863
g1070
(lp2864
F9.9999999999999995e-08
aF1000
asg12
(tsg1072
g2739
sg1073
I01
sg1074
I00
sg1075
I01
sg1076
I00
sg1077
g2739
sg973
g1185
sg13
g1186
sg1081
(lp2865
g1
(g1083
g3
NtRp2866
(dp2867
g1086
(lp2868
g1193
asg12
(tsg974
(lp2869
(lp2870
g1196
aasg1092
(lp2871
(lp2872
g1199
aasg1096
(lp2873
(lp2874
g2862
aasg1099
(lp2875
I00
asg1101
g1203
sg1103
(lp2876
g1205
asbasg1106
I00
sbag1
(g1067
g3
NtRp2877
(dp2878
g1070
(lp2879
F9.9999999999999995e-08
aF1000
asg12
(tsg1072
g2739
sg1073
I01
sg1074
I00
sg1075
I01
sg1076
I00
sg1077
g2739
sg973
g1185
sg13
g1186
sg1081
(lp2880
g1
(g1083
g3
NtRp2881
(dp2882
g1086
(lp2883
g1193
asg12
(tsg974
(lp2884
(lp2885
g1196
aasg1092
(lp2886
(lp2887
g1199
aasg1096
(lp2888
(lp2889
g2877
aasg1099
(lp2890
I00
asg1101
g1203
sg1103
(lp2891
g1205
asbasg1106
I00
sbag1
(g1067
g3
NtRp2892
(dp2893
g1070
(lp2894
F9.9999999999999995e-08
aF1000
asg12
(tsg1072
g2739
sg1073
I01
sg1074
I00
sg1075
I01
sg1076
I00
sg1077
g2739
sg973
g1185
sg13
g1186
sg1081
(lp2895
g1
(g1083
g3
NtRp2896
(dp2897
g1086
(lp2898
g1193
asg12
(tsg974
(lp2899
(lp2900
g1196
aasg1092
(lp2901
(lp2902
g1199
aasg1096
(lp2903
(lp2904
g2892
aasg1099
(lp2905
I00
asg1101
g1203
sg1103
(lp2906
g1205
asbasg1106
I00
sbag1
(g1067
g3
NtRp2907
(dp2908
g1070
(lp2909
F9.9999999999999995e-08
aF1000
asg12
(tsg1072
g2739
sg1073
I01
sg1074
I00
sg1075
I01
sg1076
I00
sg1077
g2739
sg973
g1185
sg13
g1186
sg1081
(lp2910
g1
(g1083
g3
NtRp2911
(dp2912
g1086
(lp2913
g1193
asg12
(tsg974
(lp2914
(lp2915
g1196
aasg1092
(lp2916
(lp2917
g1199
aasg1096
(lp2918
(lp2919
g2907
aasg1099
(lp2920
I00
asg1101
g1203
sg1103
(lp2921
g1205
asbasg1106
I00
sbag1
(g1067
g3
NtRp2922
(dp2923
g1070
(lp2924
F9.9999999999999995e-08
aF1000
asg12
(tsg1072
g2739
sg1073
I01
sg1074
I00
sg1075
I01
sg1076
I00
sg1077
g2739
sg973
g1185
sg13
g1186
sg1081
(lp2925
g1
(g1083
g3
NtRp2926
(dp2927
g1086
(lp2928
g1193
asg12
(tsg974
(lp2929
(lp2930
g1196
aasg1092
(lp2931
(lp2932
g1199
aasg1096
(lp2933
(lp2934
g2922
aasg1099
(lp2935
I00
asg1101
g1203
sg1103
(lp2936
g1205
asbasg1106
I00
sbag1
(g1067
g3
NtRp2937
(dp2938
g1070
(lp2939
F9.9999999999999995e-08
aF1000
asg12
(tsg1072
g2739
sg1073
I01
sg1074
I00
sg1075
I01
sg1076
I00
sg1077
g2739
sg973
g1185
sg13
g1186
sg1081
(lp2940
g1
(g1083
g3
NtRp2941
(dp2942
g1086
(lp2943
g1193
asg12
(tsg974
(lp2944
(lp2945
g1196
aasg1092
(lp2946
(lp2947
g1199
aasg1096
(lp2948
(lp2949
g2937
aasg1099
(lp2950
I00
asg1101
g1203
sg1103
(lp2951
g1205
asbasg1106
I00
sbag1
(g1067
g3
NtRp2952
(dp2953
g1070
(lp2954
F9.9999999999999995e-08
aF1000
asg12
(tsg1072
g2739
sg1073
I01
sg1074
I00
sg1075
I01
sg1076
I00
sg1077
g2739
sg973
g1185
sg13
g1186
sg1081
(lp2955
g1
(g1083
g3
NtRp2956
(dp2957
g1086
(lp2958
g1193
asg12
(tsg974
(lp2959
(lp2960
g1196
aasg1092
(lp2961
(lp2962
g1199
aasg1096
(lp2963
(lp2964
g2952
aasg1099
(lp2965
I00
asg1101
g1203
sg1103
(lp2966
g1205
asbasg1106
I00
sbag1
(g1067
g3
NtRp2967
(dp2968
g1070
(lp2969
F9.9999999999999995e-08
aF1000
asg12
(tsg1072
g2739
sg1073
I01
sg1074
I00
sg1075
I01
sg1076
I00
sg1077
g2739
sg973
g1314
sg13
g1315
sg1081
(lp2970
g1
(g1083
g3
NtRp2971
(dp2972
g1086
(lp2973
g1322
asg12
(tsg974
(lp2974
(lp2975
g1106
aasg1092
(lp2976
(lp2977
g1327
aasg1096
(lp2978
(lp2979
g2967
aasg1099
(lp2980
I00
asg1101
g1331
sg1103
(lp2981
g1333
asbasg1106
I00
sbag1
(g1067
g3
NtRp2982
(dp2983
g1070
(lp2984
F9.9999999999999995e-08
aF1000
asg12
(tsg1072
g2739
sg1073
I01
sg1074
I00
sg1075
I01
sg1076
I00
sg1077
g2739
sg973
g1314
sg13
g1315
sg1081
(lp2985
g1
(g1083
g3
NtRp2986
(dp2987
g1086
(lp2988
g1322
asg12
(tsg974
(lp2989
(lp2990
g1106
aasg1092
(lp2991
(lp2992
g1327
aasg1096
(lp2993
(lp2994
g2982
aasg1099
(lp2995
I00
asg1101
g1331
sg1103
(lp2996
g1333
asbasg1106
I00
sbag1
(g1067
g3
NtRp2997
(dp2998
g1070
(lp2999
F9.9999999999999995e-08
aF1000
asg12
(tsg1072
g2739
sg1073
I01
sg1074
I00
sg1075
I01
sg1076
I00
sg1077
g2739
sg973
g1314
sg13
g1315
sg1081
(lp3000
g1
(g1083
g3
NtRp3001
(dp3002
g1086
(lp3003
g1322
asg12
(tsg974
(lp3004
(lp3005
g1106
aasg1092
(lp3006
(lp3007
g1327
aasg1096
(lp3008
(lp3009
g2997
aasg1099
(lp3010
I00
asg1101
g1331
sg1103
(lp3011
g1333
asbasg1106
I00
sbastRp3012
g3012
bbag1
(g1035
g3
NtRp3013
g1
(g5
g6
(dp3014
g8
g1
(g9
g3
NtRp3015
(dp3016
g12
(tsg13
g14
sg16
g1035
sg17
g18
sbsg19
S'degradation of GFP'
p3017
sg29
(lp3018
sg31
g4
sg32
I01
sg33
(lp3019
sg1043
S'g_G'
p3020
sg1045
(lp3021
(S'GFP'
I1
tp3022
asg1047
g1048
sg88
(lp3023
sg91
(lp3024
sg57
(lp3025
sg71
(lp3026
sg1053
(lp3027
sg1058
g1059
sg1060
F1.0000000000000001e-30
sg64
g1061
sg1062
Nsg68
(lp3028
sg70
Nsg1064
F1
sg127
(lp3029
g3015
asg190
(lp3030
g1
(g1067
g3
NtRp3031
(dp3032
g1070
(lp3033
F9.9999999999999995e-08
aF1000
asg12
(tsg1072
g3013
sg1073
I01
sg1074
I00
sg1075
I01
sg1076
I00
sg1077
g3013
sg973
g1043
sg13
g1078
sg1081
(lp3034
g1
(g1083
g3
NtRp3035
(dp3036
g1086
(lp3037
g1088
asg12
(tsg974
(lp3038
(lp3039
g1091
aasg1092
(lp3040
(lp3041
g1095
aasg1096
(lp3042
(lp3043
g3031
aasg1099
(lp3044
I00
asg1101
g1102
sg1103
(lp3045
g1105
asbasg1106
I00
sbag1
(g1067
g3
NtRp3046
(dp3047
g1070
(lp3048
F9.9999999999999995e-08
aF1000
asg12
(tsg1072
g3013
sg1073
I01
sg1074
I00
sg1075
I01
sg1076
I00
sg1077
g3013
sg973
g1043
sg13
g1078
sg1081
(lp3049
g1
(g1083
g3
NtRp3050
(dp3051
g1086
(lp3052
g1088
asg12
(tsg974
(lp3053
(lp3054
g1091
aasg1092
(lp3055
(lp3056
g1095
aasg1096
(lp3057
(lp3058
g3046
aasg1099
(lp3059
I00
asg1101
g1102
sg1103
(lp3060
g1105
asbasg1106
I00
sbag1
(g1067
g3
NtRp3061
(dp3062
g1070
(lp3063
F9.9999999999999995e-08
aF1000
asg12
(tsg1072
g3013
sg1073
I01
sg1074
I00
sg1075
I01
sg1076
I00
sg1077
g3013
sg973
g1043
sg13
g1078
sg1081
(lp3064
g1
(g1083
g3
NtRp3065
(dp3066
g1086
(lp3067
g1088
asg12
(tsg974
(lp3068
(lp3069
g1091
aasg1092
(lp3070
(lp3071
g1095
aasg1096
(lp3072
(lp3073
g3061
aasg1099
(lp3074
I00
asg1101
g1102
sg1103
(lp3075
g1105
asbasg1106
I00
sbag1
(g1067
g3
NtRp3076
(dp3077
g1070
(lp3078
F9.9999999999999995e-08
aF1000
asg12
(tsg1072
g3013
sg1073
I01
sg1074
I00
sg1075
I01
sg1076
I00
sg1077
g3013
sg973
g1043
sg13
g1078
sg1081
(lp3079
g1
(g1083
g3
NtRp3080
(dp3081
g1086
(lp3082
g1088
asg12
(tsg974
(lp3083
(lp3084
g1091
aasg1092
(lp3085
(lp3086
g1095
aasg1096
(lp3087
(lp3088
g3076
aasg1099
(lp3089
I00
asg1101
g1102
sg1103
(lp3090
g1105
asbasg1106
I00
sbag1
(g1067
g3
NtRp3091
(dp3092
g1070
(lp3093
F9.9999999999999995e-08
aF1000
asg12
(tsg1072
g3013
sg1073
I01
sg1074
I00
sg1075
I01
sg1076
I00
sg1077
g3013
sg973
g1043
sg13
g1078
sg1081
(lp3094
g1
(g1083
g3
NtRp3095
(dp3096
g1086
(lp3097
g1088
asg12
(tsg974
(lp3098
(lp3099
g1091
aasg1092
(lp3100
(lp3101
g1095
aasg1096
(lp3102
(lp3103
g3091
aasg1099
(lp3104
I00
asg1101
g1102
sg1103
(lp3105
g1105
asbasg1106
I00
sbag1
(g1067
g3
NtRp3106
(dp3107
g1070
(lp3108
F9.9999999999999995e-08
aF1000
asg12
(tsg1072
g3013
sg1073
I01
sg1074
I00
sg1075
I01
sg1076
I00
sg1077
g3013
sg973
g1043
sg13
g1078
sg1081
(lp3109
g1
(g1083
g3
NtRp3110
(dp3111
g1086
(lp3112
g1088
asg12
(tsg974
(lp3113
(lp3114
g1091
aasg1092
(lp3115
(lp3116
g1095
aasg1096
(lp3117
(lp3118
g3106
aasg1099
(lp3119
I00
asg1101
g1102
sg1103
(lp3120
g1105
asbasg1106
I00
sbag1
(g1067
g3
NtRp3121
(dp3122
g1070
(lp3123
F9.9999999999999995e-08
aF1000
asg12
(tsg1072
g3013
sg1073
I01
sg1074
I00
sg1075
I01
sg1076
I00
sg1077
g3013
sg973
g1185
sg13
g1186
sg1081
(lp3124
g1
(g1083
g3
NtRp3125
(dp3126
g1086
(lp3127
g1193
asg12
(tsg974
(lp3128
(lp3129
g1196
aasg1092
(lp3130
(lp3131
g1199
aasg1096
(lp3132
(lp3133
g3121
aasg1099
(lp3134
I00
asg1101
g1203
sg1103
(lp3135
g1205
asbasg1106
I00
sbag1
(g1067
g3
NtRp3136
(dp3137
g1070
(lp3138
F9.9999999999999995e-08
aF1000
asg12
(tsg1072
g3013
sg1073
I01
sg1074
I00
sg1075
I01
sg1076
I00
sg1077
g3013
sg973
g1185
sg13
g1186
sg1081
(lp3139
g1
(g1083
g3
NtRp3140
(dp3141
g1086
(lp3142
g1193
asg12
(tsg974
(lp3143
(lp3144
g1196
aasg1092
(lp3145
(lp3146
g1199
aasg1096
(lp3147
(lp3148
g3136
aasg1099
(lp3149
I00
asg1101
g1203
sg1103
(lp3150
g1205
asbasg1106
I00
sbag1
(g1067
g3
NtRp3151
(dp3152
g1070
(lp3153
F9.9999999999999995e-08
aF1000
asg12
(tsg1072
g3013
sg1073
I01
sg1074
I00
sg1075
I01
sg1076
I00
sg1077
g3013
sg973
g1185
sg13
g1186
sg1081
(lp3154
g1
(g1083
g3
NtRp3155
(dp3156
g1086
(lp3157
g1193
asg12
(tsg974
(lp3158
(lp3159
g1196
aasg1092
(lp3160
(lp3161
g1199
aasg1096
(lp3162
(lp3163
g3151
aasg1099
(lp3164
I00
asg1101
g1203
sg1103
(lp3165
g1205
asbasg1106
I00
sbag1
(g1067
g3
NtRp3166
(dp3167
g1070
(lp3168
F9.9999999999999995e-08
aF1000
asg12
(tsg1072
g3013
sg1073
I01
sg1074
I00
sg1075
I01
sg1076
I00
sg1077
g3013
sg973
g1185
sg13
g1186
sg1081
(lp3169
g1
(g1083
g3
NtRp3170
(dp3171
g1086
(lp3172
g1193
asg12
(tsg974
(lp3173
(lp3174
g1196
aasg1092
(lp3175
(lp3176
g1199
aasg1096
(lp3177
(lp3178
g3166
aasg1099
(lp3179
I00
asg1101
g1203
sg1103
(lp3180
g1205
asbasg1106
I00
sbag1
(g1067
g3
NtRp3181
(dp3182
g1070
(lp3183
F9.9999999999999995e-08
aF1000
asg12
(tsg1072
g3013
sg1073
I01
sg1074
I00
sg1075
I01
sg1076
I00
sg1077
g3013
sg973
g1185
sg13
g1186
sg1081
(lp3184
g1
(g1083
g3
NtRp3185
(dp3186
g1086
(lp3187
g1193
asg12
(tsg974
(lp3188
(lp3189
g1196
aasg1092
(lp3190
(lp3191
g1199
aasg1096
(lp3192
(lp3193
g3181
aasg1099
(lp3194
I00
asg1101
g1203
sg1103
(lp3195
g1205
asbasg1106
I00
sbag1
(g1067
g3
NtRp3196
(dp3197
g1070
(lp3198
F9.9999999999999995e-08
aF1000
asg12
(tsg1072
g3013
sg1073
I01
sg1074
I00
sg1075
I01
sg1076
I00
sg1077
g3013
sg973
g1185
sg13
g1186
sg1081
(lp3199
g1
(g1083
g3
NtRp3200
(dp3201
g1086
(lp3202
g1193
asg12
(tsg974
(lp3203
(lp3204
g1196
aasg1092
(lp3205
(lp3206
g1199
aasg1096
(lp3207
(lp3208
g3196
aasg1099
(lp3209
I00
asg1101
g1203
sg1103
(lp3210
g1205
asbasg1106
I00
sbag1
(g1067
g3
NtRp3211
(dp3212
g1070
(lp3213
F9.9999999999999995e-08
aF1000
asg12
(tsg1072
g3013
sg1073
I01
sg1074
I00
sg1075
I01
sg1076
I00
sg1077
g3013
sg973
g1185
sg13
g1186
sg1081
(lp3214
g1
(g1083
g3
NtRp3215
(dp3216
g1086
(lp3217
g1193
asg12
(tsg974
(lp3218
(lp3219
g1196
aasg1092
(lp3220
(lp3221
g1199
aasg1096
(lp3222
(lp3223
g3211
aasg1099
(lp3224
I00
asg1101
g1203
sg1103
(lp3225
g1205
asbasg1106
I00
sbag1
(g1067
g3
NtRp3226
(dp3227
g1070
(lp3228
F9.9999999999999995e-08
aF1000
asg12
(tsg1072
g3013
sg1073
I01
sg1074
I00
sg1075
I01
sg1076
I00
sg1077
g3013
sg973
g1185
sg13
g1186
sg1081
(lp3229
g1
(g1083
g3
NtRp3230
(dp3231
g1086
(lp3232
g1193
asg12
(tsg974
(lp3233
(lp3234
g1196
aasg1092
(lp3235
(lp3236
g1199
aasg1096
(lp3237
(lp3238
g3226
aasg1099
(lp3239
I00
asg1101
g1203
sg1103
(lp3240
g1205
asbasg1106
I00
sbag1
(g1067
g3
NtRp3241
(dp3242
g1070
(lp3243
F9.9999999999999995e-08
aF1000
asg12
(tsg1072
g3013
sg1073
I01
sg1074
I00
sg1075
I01
sg1076
I00
sg1077
g3013
sg973
g1314
sg13
g1315
sg1081
(lp3244
g1
(g1083
g3
NtRp3245
(dp3246
g1086
(lp3247
g1322
asg12
(tsg974
(lp3248
(lp3249
g1106
aasg1092
(lp3250
(lp3251
g1327
aasg1096
(lp3252
(lp3253
g3241
aasg1099
(lp3254
I00
asg1101
g1331
sg1103
(lp3255
g1333
asbasg1106
I00
sbag1
(g1067
g3
NtRp3256
(dp3257
g1070
(lp3258
F9.9999999999999995e-08
aF1000
asg12
(tsg1072
g3013
sg1073
I01
sg1074
I00
sg1075
I01
sg1076
I00
sg1077
g3013
sg973
g1314
sg13
g1315
sg1081
(lp3259
g1
(g1083
g3
NtRp3260
(dp3261
g1086
(lp3262
g1322
asg12
(tsg974
(lp3263
(lp3264
g1106
aasg1092
(lp3265
(lp3266
g1327
aasg1096
(lp3267
(lp3268
g3256
aasg1099
(lp3269
I00
asg1101
g1331
sg1103
(lp3270
g1333
asbasg1106
I00
sbag1
(g1067
g3
NtRp3271
(dp3272
g1070
(lp3273
F9.9999999999999995e-08
aF1000
asg12
(tsg1072
g3013
sg1073
I01
sg1074
I00
sg1075
I01
sg1076
I00
sg1077
g3013
sg973
g1314
sg13
g1315
sg1081
(lp3274
g1
(g1083
g3
NtRp3275
(dp3276
g1086
(lp3277
g1322
asg12
(tsg974
(lp3278
(lp3279
g1106
aasg1092
(lp3280
(lp3281
g1327
aasg1096
(lp3282
(lp3283
g3271
aasg1099
(lp3284
I00
asg1101
g1331
sg1103
(lp3285
g1333
asbasg1106
I00
sbastRp3286
g3286
bbag1
(g1035
g3
NtRp3287
g1
(g5
g6
(dp3288
g8
g1
(g9
g3
NtRp3289
(dp3290
g12
(tsg13
g14
sg16
g1035
sg17
g18
sbsg19
S'degradation of CFP'
p3291
sg29
(lp3292
sg31
g4
sg32
I01
sg33
(lp3293
sg1043
S'g_C'
p3294
sg1045
(lp3295
(S'CFP'
I1
tp3296
asg1047
g1048
sg88
(lp3297
sg91
(lp3298
sg57
(lp3299
sg71
(lp3300
sg1053
(lp3301
sg1058
g1059
sg1060
F1.0000000000000001e-30
sg64
g1061
sg1062
Nsg68
(lp3302
sg70
Nsg1064
F1
sg127
(lp3303
g3289
asg190
(lp3304
g1
(g1067
g3
NtRp3305
(dp3306
g1070
(lp3307
F9.9999999999999995e-08
aF1000
asg12
(tsg1072
g3287
sg1073
I01
sg1074
I00
sg1075
I01
sg1076
I00
sg1077
g3287
sg973
g1043
sg13
g1078
sg1081
(lp3308
g1
(g1083
g3
NtRp3309
(dp3310
g1086
(lp3311
g1088
asg12
(tsg974
(lp3312
(lp3313
g1091
aasg1092
(lp3314
(lp3315
g1095
aasg1096
(lp3316
(lp3317
g3305
aasg1099
(lp3318
I00
asg1101
g1102
sg1103
(lp3319
g1105
asbasg1106
I00
sbag1
(g1067
g3
NtRp3320
(dp3321
g1070
(lp3322
F9.9999999999999995e-08
aF1000
asg12
(tsg1072
g3287
sg1073
I01
sg1074
I00
sg1075
I01
sg1076
I00
sg1077
g3287
sg973
g1043
sg13
g1078
sg1081
(lp3323
g1
(g1083
g3
NtRp3324
(dp3325
g1086
(lp3326
g1088
asg12
(tsg974
(lp3327
(lp3328
g1091
aasg1092
(lp3329
(lp3330
g1095
aasg1096
(lp3331
(lp3332
g3320
aasg1099
(lp3333
I00
asg1101
g1102
sg1103
(lp3334
g1105
asbasg1106
I00
sbag1
(g1067
g3
NtRp3335
(dp3336
g1070
(lp3337
F9.9999999999999995e-08
aF1000
asg12
(tsg1072
g3287
sg1073
I01
sg1074
I00
sg1075
I01
sg1076
I00
sg1077
g3287
sg973
g1043
sg13
g1078
sg1081
(lp3338
g1
(g1083
g3
NtRp3339
(dp3340
g1086
(lp3341
g1088
asg12
(tsg974
(lp3342
(lp3343
g1091
aasg1092
(lp3344
(lp3345
g1095
aasg1096
(lp3346
(lp3347
g3335
aasg1099
(lp3348
I00
asg1101
g1102
sg1103
(lp3349
g1105
asbasg1106
I00
sbag1
(g1067
g3
NtRp3350
(dp3351
g1070
(lp3352
F9.9999999999999995e-08
aF1000
asg12
(tsg1072
g3287
sg1073
I01
sg1074
I00
sg1075
I01
sg1076
I00
sg1077
g3287
sg973
g1043
sg13
g1078
sg1081
(lp3353
g1
(g1083
g3
NtRp3354
(dp3355
g1086
(lp3356
g1088
asg12
(tsg974
(lp3357
(lp3358
g1091
aasg1092
(lp3359
(lp3360
g1095
aasg1096
(lp3361
(lp3362
g3350
aasg1099
(lp3363
I00
asg1101
g1102
sg1103
(lp3364
g1105
asbasg1106
I00
sbag1
(g1067
g3
NtRp3365
(dp3366
g1070
(lp3367
F9.9999999999999995e-08
aF1000
asg12
(tsg1072
g3287
sg1073
I01
sg1074
I00
sg1075
I01
sg1076
I00
sg1077
g3287
sg973
g1043
sg13
g1078
sg1081
(lp3368
g1
(g1083
g3
NtRp3369
(dp3370
g1086
(lp3371
g1088
asg12
(tsg974
(lp3372
(lp3373
g1091
aasg1092
(lp3374
(lp3375
g1095
aasg1096
(lp3376
(lp3377
g3365
aasg1099
(lp3378
I00
asg1101
g1102
sg1103
(lp3379
g1105
asbasg1106
I00
sbag1
(g1067
g3
NtRp3380
(dp3381
g1070
(lp3382
F9.9999999999999995e-08
aF1000
asg12
(tsg1072
g3287
sg1073
I01
sg1074
I00
sg1075
I01
sg1076
I00
sg1077
g3287
sg973
g1043
sg13
g1078
sg1081
(lp3383
g1
(g1083
g3
NtRp3384
(dp3385
g1086
(lp3386
g1088
asg12
(tsg974
(lp3387
(lp3388
g1091
aasg1092
(lp3389
(lp3390
g1095
aasg1096
(lp3391
(lp3392
g3380
aasg1099
(lp3393
I00
asg1101
g1102
sg1103
(lp3394
g1105
asbasg1106
I00
sbag1
(g1067
g3
NtRp3395
(dp3396
g1070
(lp3397
F9.9999999999999995e-08
aF1000
asg12
(tsg1072
g3287
sg1073
I01
sg1074
I00
sg1075
I01
sg1076
I00
sg1077
g3287
sg973
g1185
sg13
g1186
sg1081
(lp3398
g1
(g1083
g3
NtRp3399
(dp3400
g1086
(lp3401
g1193
asg12
(tsg974
(lp3402
(lp3403
g1196
aasg1092
(lp3404
(lp3405
g1199
aasg1096
(lp3406
(lp3407
g3395
aasg1099
(lp3408
I00
asg1101
g1203
sg1103
(lp3409
g1205
asbasg1106
I00
sbag1
(g1067
g3
NtRp3410
(dp3411
g1070
(lp3412
F9.9999999999999995e-08
aF1000
asg12
(tsg1072
g3287
sg1073
I01
sg1074
I00
sg1075
I01
sg1076
I00
sg1077
g3287
sg973
g1185
sg13
g1186
sg1081
(lp3413
g1
(g1083
g3
NtRp3414
(dp3415
g1086
(lp3416
g1193
asg12
(tsg974
(lp3417
(lp3418
g1196
aasg1092
(lp3419
(lp3420
g1199
aasg1096
(lp3421
(lp3422
g3410
aasg1099
(lp3423
I00
asg1101
g1203
sg1103
(lp3424
g1205
asbasg1106
I00
sbag1
(g1067
g3
NtRp3425
(dp3426
g1070
(lp3427
F9.9999999999999995e-08
aF1000
asg12
(tsg1072
g3287
sg1073
I01
sg1074
I00
sg1075
I01
sg1076
I00
sg1077
g3287
sg973
g1185
sg13
g1186
sg1081
(lp3428
g1
(g1083
g3
NtRp3429
(dp3430
g1086
(lp3431
g1193
asg12
(tsg974
(lp3432
(lp3433
g1196
aasg1092
(lp3434
(lp3435
g1199
aasg1096
(lp3436
(lp3437
g3425
aasg1099
(lp3438
I00
asg1101
g1203
sg1103
(lp3439
g1205
asbasg1106
I00
sbag1
(g1067
g3
NtRp3440
(dp3441
g1070
(lp3442
F9.9999999999999995e-08
aF1000
asg12
(tsg1072
g3287
sg1073
I01
sg1074
I00
sg1075
I01
sg1076
I00
sg1077
g3287
sg973
g1185
sg13
g1186
sg1081
(lp3443
g1
(g1083
g3
NtRp3444
(dp3445
g1086
(lp3446
g1193
asg12
(tsg974
(lp3447
(lp3448
g1196
aasg1092
(lp3449
(lp3450
g1199
aasg1096
(lp3451
(lp3452
g3440
aasg1099
(lp3453
I00
asg1101
g1203
sg1103
(lp3454
g1205
asbasg1106
I00
sbag1
(g1067
g3
NtRp3455
(dp3456
g1070
(lp3457
F9.9999999999999995e-08
aF1000
asg12
(tsg1072
g3287
sg1073
I01
sg1074
I00
sg1075
I01
sg1076
I00
sg1077
g3287
sg973
g1185
sg13
g1186
sg1081
(lp3458
g1
(g1083
g3
NtRp3459
(dp3460
g1086
(lp3461
g1193
asg12
(tsg974
(lp3462
(lp3463
g1196
aasg1092
(lp3464
(lp3465
g1199
aasg1096
(lp3466
(lp3467
g3455
aasg1099
(lp3468
I00
asg1101
g1203
sg1103
(lp3469
g1205
asbasg1106
I00
sbag1
(g1067
g3
NtRp3470
(dp3471
g1070
(lp3472
F9.9999999999999995e-08
aF1000
asg12
(tsg1072
g3287
sg1073
I01
sg1074
I00
sg1075
I01
sg1076
I00
sg1077
g3287
sg973
g1185
sg13
g1186
sg1081
(lp3473
g1
(g1083
g3
NtRp3474
(dp3475
g1086
(lp3476
g1193
asg12
(tsg974
(lp3477
(lp3478
g1196
aasg1092
(lp3479
(lp3480
g1199
aasg1096
(lp3481
(lp3482
g3470
aasg1099
(lp3483
I00
asg1101
g1203
sg1103
(lp3484
g1205
asbasg1106
I00
sbag1
(g1067
g3
NtRp3485
(dp3486
g1070
(lp3487
F9.9999999999999995e-08
aF1000
asg12
(tsg1072
g3287
sg1073
I01
sg1074
I00
sg1075
I01
sg1076
I00
sg1077
g3287
sg973
g1185
sg13
g1186
sg1081
(lp3488
g1
(g1083
g3
NtRp3489
(dp3490
g1086
(lp3491
g1193
asg12
(tsg974
(lp3492
(lp3493
g1196
aasg1092
(lp3494
(lp3495
g1199
aasg1096
(lp3496
(lp3497
g3485
aasg1099
(lp3498
I00
asg1101
g1203
sg1103
(lp3499
g1205
asbasg1106
I00
sbag1
(g1067
g3
NtRp3500
(dp3501
g1070
(lp3502
F9.9999999999999995e-08
aF1000
asg12
(tsg1072
g3287
sg1073
I01
sg1074
I00
sg1075
I01
sg1076
I00
sg1077
g3287
sg973
g1185
sg13
g1186
sg1081
(lp3503
g1
(g1083
g3
NtRp3504
(dp3505
g1086
(lp3506
g1193
asg12
(tsg974
(lp3507
(lp3508
g1196
aasg1092
(lp3509
(lp3510
g1199
aasg1096
(lp3511
(lp3512
g3500
aasg1099
(lp3513
I00
asg1101
g1203
sg1103
(lp3514
g1205
asbasg1106
I00
sbag1
(g1067
g3
NtRp3515
(dp3516
g1070
(lp3517
F9.9999999999999995e-08
aF1000
asg12
(tsg1072
g3287
sg1073
I01
sg1074
I00
sg1075
I01
sg1076
I00
sg1077
g3287
sg973
g1314
sg13
g1315
sg1081
(lp3518
g1
(g1083
g3
NtRp3519
(dp3520
g1086
(lp3521
g1322
asg12
(tsg974
(lp3522
(lp3523
g1106
aasg1092
(lp3524
(lp3525
g1327
aasg1096
(lp3526
(lp3527
g3515
aasg1099
(lp3528
I00
asg1101
g1331
sg1103
(lp3529
g1333
asbasg1106
I00
sbag1
(g1067
g3
NtRp3530
(dp3531
g1070
(lp3532
F9.9999999999999995e-08
aF1000
asg12
(tsg1072
g3287
sg1073
I01
sg1074
I00
sg1075
I01
sg1076
I00
sg1077
g3287
sg973
g1314
sg13
g1315
sg1081
(lp3533
g1
(g1083
g3
NtRp3534
(dp3535
g1086
(lp3536
g1322
asg12
(tsg974
(lp3537
(lp3538
g1106
aasg1092
(lp3539
(lp3540
g1327
aasg1096
(lp3541
(lp3542
g3530
aasg1099
(lp3543
I00
asg1101
g1331
sg1103
(lp3544
g1333
asbasg1106
I00
sbag1
(g1067
g3
NtRp3545
(dp3546
g1070
(lp3547
F9.9999999999999995e-08
aF1000
asg12
(tsg1072
g3287
sg1073
I01
sg1074
I00
sg1075
I01
sg1076
I00
sg1077
g3287
sg973
g1314
sg13
g1315
sg1081
(lp3548
g1
(g1083
g3
NtRp3549
(dp3550
g1086
(lp3551
g1322
asg12
(tsg974
(lp3552
(lp3553
g1106
aasg1092
(lp3554
(lp3555
g1327
aasg1096
(lp3556
(lp3557
g3545
aasg1099
(lp3558
I00
asg1101
g1331
sg1103
(lp3559
g1333
asbasg1106
I00
sbastRp3560
g3560
bbag1
(g1035
g3
NtRp3561
g1
(g5
g6
(dp3562
g8
g1
(g9
g3
NtRp3563
(dp3564
g12
(tsg13
g14
sg16
g1035
sg17
g18
sbsg19
S'degradation of LacI'
p3565
sg29
(lp3566
sg31
g4
sg32
I01
sg33
(lp3567
sg1043
S'g_L'
p3568
sg1045
(lp3569
(S'LacI'
I1
tp3570
asg1047
g1048
sg88
(lp3571
sg91
(lp3572
sg57
(lp3573
sg71
(lp3574
sg1053
(lp3575
sg1058
g1059
sg1060
F1.0000000000000001e-30
sg64
g1061
sg1062
Nsg68
(lp3576
sg70
Nsg1064
F1
sg127
(lp3577
g3563
asg190
(lp3578
g1
(g1067
g3
NtRp3579
(dp3580
g1070
(lp3581
F9.9999999999999995e-08
aF1000
asg12
(tsg1072
g3561
sg1073
I01
sg1074
I00
sg1075
I01
sg1076
I00
sg1077
g3561
sg973
g1043
sg13
g1078
sg1081
(lp3582
g1
(g1083
g3
NtRp3583
(dp3584
g1086
(lp3585
g1088
asg12
(tsg974
(lp3586
(lp3587
g1091
aasg1092
(lp3588
(lp3589
g1095
aasg1096
(lp3590
(lp3591
g3579
aasg1099
(lp3592
I00
asg1101
g1102
sg1103
(lp3593
g1105
asbasg1106
I00
sbag1
(g1067
g3
NtRp3594
(dp3595
g1070
(lp3596
F9.9999999999999995e-08
aF1000
asg12
(tsg1072
g3561
sg1073
I01
sg1074
I00
sg1075
I01
sg1076
I00
sg1077
g3561
sg973
g1043
sg13
g1078
sg1081
(lp3597
g1
(g1083
g3
NtRp3598
(dp3599
g1086
(lp3600
g1088
asg12
(tsg974
(lp3601
(lp3602
g1091
aasg1092
(lp3603
(lp3604
g1095
aasg1096
(lp3605
(lp3606
g3594
aasg1099
(lp3607
I00
asg1101
g1102
sg1103
(lp3608
g1105
asbasg1106
I00
sbag1
(g1067
g3
NtRp3609
(dp3610
g1070
(lp3611
F9.9999999999999995e-08
aF1000
asg12
(tsg1072
g3561
sg1073
I01
sg1074
I00
sg1075
I01
sg1076
I00
sg1077
g3561
sg973
g1043
sg13
g1078
sg1081
(lp3612
g1
(g1083
g3
NtRp3613
(dp3614
g1086
(lp3615
g1088
asg12
(tsg974
(lp3616
(lp3617
g1091
aasg1092
(lp3618
(lp3619
g1095
aasg1096
(lp3620
(lp3621
g3609
aasg1099
(lp3622
I00
asg1101
g1102
sg1103
(lp3623
g1105
asbasg1106
I00
sbag1
(g1067
g3
NtRp3624
(dp3625
g1070
(lp3626
F9.9999999999999995e-08
aF1000
asg12
(tsg1072
g3561
sg1073
I01
sg1074
I00
sg1075
I01
sg1076
I00
sg1077
g3561
sg973
g1043
sg13
g1078
sg1081
(lp3627
g1
(g1083
g3
NtRp3628
(dp3629
g1086
(lp3630
g1088
asg12
(tsg974
(lp3631
(lp3632
g1091
aasg1092
(lp3633
(lp3634
g1095
aasg1096
(lp3635
(lp3636
g3624
aasg1099
(lp3637
I00
asg1101
g1102
sg1103
(lp3638
g1105
asbasg1106
I00
sbag1
(g1067
g3
NtRp3639
(dp3640
g1070
(lp3641
F9.9999999999999995e-08
aF1000
asg12
(tsg1072
g3561
sg1073
I01
sg1074
I00
sg1075
I01
sg1076
I00
sg1077
g3561
sg973
g1043
sg13
g1078
sg1081
(lp3642
g1
(g1083
g3
NtRp3643
(dp3644
g1086
(lp3645
g1088
asg12
(tsg974
(lp3646
(lp3647
g1091
aasg1092
(lp3648
(lp3649
g1095
aasg1096
(lp3650
(lp3651
g3639
aasg1099
(lp3652
I00
asg1101
g1102
sg1103
(lp3653
g1105
asbasg1106
I00
sbag1
(g1067
g3
NtRp3654
(dp3655
g1070
(lp3656
F9.9999999999999995e-08
aF1000
asg12
(tsg1072
g3561
sg1073
I01
sg1074
I00
sg1075
I01
sg1076
I00
sg1077
g3561
sg973
g1043
sg13
g1078
sg1081
(lp3657
g1
(g1083
g3
NtRp3658
(dp3659
g1086
(lp3660
g1088
asg12
(tsg974
(lp3661
(lp3662
g1091
aasg1092
(lp3663
(lp3664
g1095
aasg1096
(lp3665
(lp3666
g3654
aasg1099
(lp3667
I00
asg1101
g1102
sg1103
(lp3668
g1105
asbasg1106
I00
sbag1
(g1067
g3
NtRp3669
(dp3670
g1070
(lp3671
F9.9999999999999995e-08
aF1000
asg12
(tsg1072
g3561
sg1073
I01
sg1074
I00
sg1075
I01
sg1076
I00
sg1077
g3561
sg973
g1185
sg13
g1186
sg1081
(lp3672
g1
(g1083
g3
NtRp3673
(dp3674
g1086
(lp3675
g1193
asg12
(tsg974
(lp3676
(lp3677
g1196
aasg1092
(lp3678
(lp3679
g1199
aasg1096
(lp3680
(lp3681
g3669
aasg1099
(lp3682
I00
asg1101
g1203
sg1103
(lp3683
g1205
asbasg1106
I00
sbag1
(g1067
g3
NtRp3684
(dp3685
g1070
(lp3686
F9.9999999999999995e-08
aF1000
asg12
(tsg1072
g3561
sg1073
I01
sg1074
I00
sg1075
I01
sg1076
I00
sg1077
g3561
sg973
g1185
sg13
g1186
sg1081
(lp3687
g1
(g1083
g3
NtRp3688
(dp3689
g1086
(lp3690
g1193
asg12
(tsg974
(lp3691
(lp3692
g1196
aasg1092
(lp3693
(lp3694
g1199
aasg1096
(lp3695
(lp3696
g3684
aasg1099
(lp3697
I00
asg1101
g1203
sg1103
(lp3698
g1205
asbasg1106
I00
sbag1
(g1067
g3
NtRp3699
(dp3700
g1070
(lp3701
F9.9999999999999995e-08
aF1000
asg12
(tsg1072
g3561
sg1073
I01
sg1074
I00
sg1075
I01
sg1076
I00
sg1077
g3561
sg973
g1185
sg13
g1186
sg1081
(lp3702
g1
(g1083
g3
NtRp3703
(dp3704
g1086
(lp3705
g1193
asg12
(tsg974
(lp3706
(lp3707
g1196
aasg1092
(lp3708
(lp3709
g1199
aasg1096
(lp3710
(lp3711
g3699
aasg1099
(lp3712
I00
asg1101
g1203
sg1103
(lp3713
g1205
asbasg1106
I00
sbag1
(g1067
g3
NtRp3714
(dp3715
g1070
(lp3716
F9.9999999999999995e-08
aF1000
asg12
(tsg1072
g3561
sg1073
I01
sg1074
I00
sg1075
I01
sg1076
I00
sg1077
g3561
sg973
g1185
sg13
g1186
sg1081
(lp3717
g1
(g1083
g3
NtRp3718
(dp3719
g1086
(lp3720
g1193
asg12
(tsg974
(lp3721
(lp3722
g1196
aasg1092
(lp3723
(lp3724
g1199
aasg1096
(lp3725
(lp3726
g3714
aasg1099
(lp3727
I00
asg1101
g1203
sg1103
(lp3728
g1205
asbasg1106
I00
sbag1
(g1067
g3
NtRp3729
(dp3730
g1070
(lp3731
F9.9999999999999995e-08
aF1000
asg12
(tsg1072
g3561
sg1073
I01
sg1074
I00
sg1075
I01
sg1076
I00
sg1077
g3561
sg973
g1185
sg13
g1186
sg1081
(lp3732
g1
(g1083
g3
NtRp3733
(dp3734
g1086
(lp3735
g1193
asg12
(tsg974
(lp3736
(lp3737
g1196
aasg1092
(lp3738
(lp3739
g1199
aasg1096
(lp3740
(lp3741
g3729
aasg1099
(lp3742
I00
asg1101
g1203
sg1103
(lp3743
g1205
asbasg1106
I00
sbag1
(g1067
g3
NtRp3744
(dp3745
g1070
(lp3746
F9.9999999999999995e-08
aF1000
asg12
(tsg1072
g3561
sg1073
I01
sg1074
I00
sg1075
I01
sg1076
I00
sg1077
g3561
sg973
g1185
sg13
g1186
sg1081
(lp3747
g1
(g1083
g3
NtRp3748
(dp3749
g1086
(lp3750
g1193
asg12
(tsg974
(lp3751
(lp3752
g1196
aasg1092
(lp3753
(lp3754
g1199
aasg1096
(lp3755
(lp3756
g3744
aasg1099
(lp3757
I00
asg1101
g1203
sg1103
(lp3758
g1205
asbasg1106
I00
sbag1
(g1067
g3
NtRp3759
(dp3760
g1070
(lp3761
F9.9999999999999995e-08
aF1000
asg12
(tsg1072
g3561
sg1073
I01
sg1074
I00
sg1075
I01
sg1076
I00
sg1077
g3561
sg973
g1185
sg13
g1186
sg1081
(lp3762
g1
(g1083
g3
NtRp3763
(dp3764
g1086
(lp3765
g1193
asg12
(tsg974
(lp3766
(lp3767
g1196
aasg1092
(lp3768
(lp3769
g1199
aasg1096
(lp3770
(lp3771
g3759
aasg1099
(lp3772
I00
asg1101
g1203
sg1103
(lp3773
g1205
asbasg1106
I00
sbag1
(g1067
g3
NtRp3774
(dp3775
g1070
(lp3776
F9.9999999999999995e-08
aF1000
asg12
(tsg1072
g3561
sg1073
I01
sg1074
I00
sg1075
I01
sg1076
I00
sg1077
g3561
sg973
g1185
sg13
g1186
sg1081
(lp3777
g1
(g1083
g3
NtRp3778
(dp3779
g1086
(lp3780
g1193
asg12
(tsg974
(lp3781
(lp3782
g1196
aasg1092
(lp3783
(lp3784
g1199
aasg1096
(lp3785
(lp3786
g3774
aasg1099
(lp3787
I00
asg1101
g1203
sg1103
(lp3788
g1205
asbasg1106
I00
sbag1
(g1067
g3
NtRp3789
(dp3790
g1070
(lp3791
F9.9999999999999995e-08
aF1000
asg12
(tsg1072
g3561
sg1073
I01
sg1074
I00
sg1075
I01
sg1076
I00
sg1077
g3561
sg973
g1314
sg13
g1315
sg1081
(lp3792
g1
(g1083
g3
NtRp3793
(dp3794
g1086
(lp3795
g1322
asg12
(tsg974
(lp3796
(lp3797
g1106
aasg1092
(lp3798
(lp3799
g1327
aasg1096
(lp3800
(lp3801
g3789
aasg1099
(lp3802
I00
asg1101
g1331
sg1103
(lp3803
g1333
asbasg1106
I00
sbag1
(g1067
g3
NtRp3804
(dp3805
g1070
(lp3806
F9.9999999999999995e-08
aF1000
asg12
(tsg1072
g3561
sg1073
I01
sg1074
I00
sg1075
I01
sg1076
I00
sg1077
g3561
sg973
g1314
sg13
g1315
sg1081
(lp3807
g1
(g1083
g3
NtRp3808
(dp3809
g1086
(lp3810
g1322
asg12
(tsg974
(lp3811
(lp3812
g1106
aasg1092
(lp3813
(lp3814
g1327
aasg1096
(lp3815
(lp3816
g3804
aasg1099
(lp3817
I00
asg1101
g1331
sg1103
(lp3818
g1333
asbasg1106
I00
sbag1
(g1067
g3
NtRp3819
(dp3820
g1070
(lp3821
F9.9999999999999995e-08
aF1000
asg12
(tsg1072
g3561
sg1073
I01
sg1074
I00
sg1075
I01
sg1076
I00
sg1077
g3561
sg973
g1314
sg13
g1315
sg1081
(lp3822
g1
(g1083
g3
NtRp3823
(dp3824
g1086
(lp3825
g1322
asg12
(tsg974
(lp3826
(lp3827
g1106
aasg1092
(lp3828
(lp3829
g1327
aasg1096
(lp3830
(lp3831
g3819
aasg1099
(lp3832
I00
asg1101
g1331
sg1103
(lp3833
g1333
asbasg1106
I00
sbastRp3834
g3834
bbag1
(g1035
g3
NtRp3835
g1
(g5
g6
(dp3836
g8
g1
(g9
g3
NtRp3837
(dp3838
g12
(tsg13
g14
sg16
g1035
sg17
g18
sbsg19
S'degradation of LacI4'
p3839
sg29
(lp3840
sg31
g4
sg32
I01
sg33
(lp3841
sg1043
S'g_L4'
p3842
sg1045
(lp3843
(S'LacI4'
I1
tp3844
asg1047
g1048
sg88
(lp3845
sg91
(lp3846
sg57
(lp3847
sg71
(lp3848
sg1053
(lp3849
sg1058
g1059
sg1060
F1.0000000000000001e-30
sg64
g1061
sg1062
Nsg68
(lp3850
sg70
Nsg1064
F1
sg127
(lp3851
g3837
asg190
(lp3852
g1
(g1067
g3
NtRp3853
(dp3854
g1070
(lp3855
F9.9999999999999995e-08
aF1000
asg12
(tsg1072
g3835
sg1073
I01
sg1074
I00
sg1075
I01
sg1076
I00
sg1077
g3835
sg973
g1043
sg13
g1078
sg1081
(lp3856
g1
(g1083
g3
NtRp3857
(dp3858
g1086
(lp3859
g1088
asg12
(tsg974
(lp3860
(lp3861
g1091
aasg1092
(lp3862
(lp3863
g1095
aasg1096
(lp3864
(lp3865
g3853
aasg1099
(lp3866
I00
asg1101
g1102
sg1103
(lp3867
g1105
asbasg1106
I00
sbag1
(g1067
g3
NtRp3868
(dp3869
g1070
(lp3870
F9.9999999999999995e-08
aF1000
asg12
(tsg1072
g3835
sg1073
I01
sg1074
I00
sg1075
I01
sg1076
I00
sg1077
g3835
sg973
g1043
sg13
g1078
sg1081
(lp3871
g1
(g1083
g3
NtRp3872
(dp3873
g1086
(lp3874
g1088
asg12
(tsg974
(lp3875
(lp3876
g1091
aasg1092
(lp3877
(lp3878
g1095
aasg1096
(lp3879
(lp3880
g3868
aasg1099
(lp3881
I00
asg1101
g1102
sg1103
(lp3882
g1105
asbasg1106
I00
sbag1
(g1067
g3
NtRp3883
(dp3884
g1070
(lp3885
F9.9999999999999995e-08
aF1000
asg12
(tsg1072
g3835
sg1073
I01
sg1074
I00
sg1075
I01
sg1076
I00
sg1077
g3835
sg973
g1043
sg13
g1078
sg1081
(lp3886
g1
(g1083
g3
NtRp3887
(dp3888
g1086
(lp3889
g1088
asg12
(tsg974
(lp3890
(lp3891
g1091
aasg1092
(lp3892
(lp3893
g1095
aasg1096
(lp3894
(lp3895
g3883
aasg1099
(lp3896
I00
asg1101
g1102
sg1103
(lp3897
g1105
asbasg1106
I00
sbag1
(g1067
g3
NtRp3898
(dp3899
g1070
(lp3900
F9.9999999999999995e-08
aF1000
asg12
(tsg1072
g3835
sg1073
I01
sg1074
I00
sg1075
I01
sg1076
I00
sg1077
g3835
sg973
g1043
sg13
g1078
sg1081
(lp3901
g1
(g1083
g3
NtRp3902
(dp3903
g1086
(lp3904
g1088
asg12
(tsg974
(lp3905
(lp3906
g1091
aasg1092
(lp3907
(lp3908
g1095
aasg1096
(lp3909
(lp3910
g3898
aasg1099
(lp3911
I00
asg1101
g1102
sg1103
(lp3912
g1105
asbasg1106
I00
sbag1
(g1067
g3
NtRp3913
(dp3914
g1070
(lp3915
F9.9999999999999995e-08
aF1000
asg12
(tsg1072
g3835
sg1073
I01
sg1074
I00
sg1075
I01
sg1076
I00
sg1077
g3835
sg973
g1043
sg13
g1078
sg1081
(lp3916
g1
(g1083
g3
NtRp3917
(dp3918
g1086
(lp3919
g1088
asg12
(tsg974
(lp3920
(lp3921
g1091
aasg1092
(lp3922
(lp3923
g1095
aasg1096
(lp3924
(lp3925
g3913
aasg1099
(lp3926
I00
asg1101
g1102
sg1103
(lp3927
g1105
asbasg1106
I00
sbag1
(g1067
g3
NtRp3928
(dp3929
g1070
(lp3930
F9.9999999999999995e-08
aF1000
asg12
(tsg1072
g3835
sg1073
I01
sg1074
I00
sg1075
I01
sg1076
I00
sg1077
g3835
sg973
g1043
sg13
g1078
sg1081
(lp3931
g1
(g1083
g3
NtRp3932
(dp3933
g1086
(lp3934
g1088
asg12
(tsg974
(lp3935
(lp3936
g1091
aasg1092
(lp3937
(lp3938
g1095
aasg1096
(lp3939
(lp3940
g3928
aasg1099
(lp3941
I00
asg1101
g1102
sg1103
(lp3942
g1105
asbasg1106
I00
sbag1
(g1067
g3
NtRp3943
(dp3944
g1070
(lp3945
F9.9999999999999995e-08
aF1000
asg12
(tsg1072
g3835
sg1073
I01
sg1074
I00
sg1075
I01
sg1076
I00
sg1077
g3835
sg973
g1185
sg13
g1186
sg1081
(lp3946
g1
(g1083
g3
NtRp3947
(dp3948
g1086
(lp3949
g1193
asg12
(tsg974
(lp3950
(lp3951
g1196
aasg1092
(lp3952
(lp3953
g1199
aasg1096
(lp3954
(lp3955
g3943
aasg1099
(lp3956
I00
asg1101
g1203
sg1103
(lp3957
g1205
asbasg1106
I00
sbag1
(g1067
g3
NtRp3958
(dp3959
g1070
(lp3960
F9.9999999999999995e-08
aF1000
asg12
(tsg1072
g3835
sg1073
I01
sg1074
I00
sg1075
I01
sg1076
I00
sg1077
g3835
sg973
g1185
sg13
g1186
sg1081
(lp3961
g1
(g1083
g3
NtRp3962
(dp3963
g1086
(lp3964
g1193
asg12
(tsg974
(lp3965
(lp3966
g1196
aasg1092
(lp3967
(lp3968
g1199
aasg1096
(lp3969
(lp3970
g3958
aasg1099
(lp3971
I00
asg1101
g1203
sg1103
(lp3972
g1205
asbasg1106
I00
sbag1
(g1067
g3
NtRp3973
(dp3974
g1070
(lp3975
F9.9999999999999995e-08
aF1000
asg12
(tsg1072
g3835
sg1073
I01
sg1074
I00
sg1075
I01
sg1076
I00
sg1077
g3835
sg973
g1185
sg13
g1186
sg1081
(lp3976
g1
(g1083
g3
NtRp3977
(dp3978
g1086
(lp3979
g1193
asg12
(tsg974
(lp3980
(lp3981
g1196
aasg1092
(lp3982
(lp3983
g1199
aasg1096
(lp3984
(lp3985
g3973
aasg1099
(lp3986
I00
asg1101
g1203
sg1103
(lp3987
g1205
asbasg1106
I00
sbag1
(g1067
g3
NtRp3988
(dp3989
g1070
(lp3990
F9.9999999999999995e-08
aF1000
asg12
(tsg1072
g3835
sg1073
I01
sg1074
I00
sg1075
I01
sg1076
I00
sg1077
g3835
sg973
g1185
sg13
g1186
sg1081
(lp3991
g1
(g1083
g3
NtRp3992
(dp3993
g1086
(lp3994
g1193
asg12
(tsg974
(lp3995
(lp3996
g1196
aasg1092
(lp3997
(lp3998
g1199
aasg1096
(lp3999
(lp4000
g3988
aasg1099
(lp4001
I00
asg1101
g1203
sg1103
(lp4002
g1205
asbasg1106
I00
sbag1
(g1067
g3
NtRp4003
(dp4004
g1070
(lp4005
F9.9999999999999995e-08
aF1000
asg12
(tsg1072
g3835
sg1073
I01
sg1074
I00
sg1075
I01
sg1076
I00
sg1077
g3835
sg973
g1185
sg13
g1186
sg1081
(lp4006
g1
(g1083
g3
NtRp4007
(dp4008
g1086
(lp4009
g1193
asg12
(tsg974
(lp4010
(lp4011
g1196
aasg1092
(lp4012
(lp4013
g1199
aasg1096
(lp4014
(lp4015
g4003
aasg1099
(lp4016
I00
asg1101
g1203
sg1103
(lp4017
g1205
asbasg1106
I00
sbag1
(g1067
g3
NtRp4018
(dp4019
g1070
(lp4020
F9.9999999999999995e-08
aF1000
asg12
(tsg1072
g3835
sg1073
I01
sg1074
I00
sg1075
I01
sg1076
I00
sg1077
g3835
sg973
g1185
sg13
g1186
sg1081
(lp4021
g1
(g1083
g3
NtRp4022
(dp4023
g1086
(lp4024
g1193
asg12
(tsg974
(lp4025
(lp4026
g1196
aasg1092
(lp4027
(lp4028
g1199
aasg1096
(lp4029
(lp4030
g4018
aasg1099
(lp4031
I00
asg1101
g1203
sg1103
(lp4032
g1205
asbasg1106
I00
sbag1
(g1067
g3
NtRp4033
(dp4034
g1070
(lp4035
F9.9999999999999995e-08
aF1000
asg12
(tsg1072
g3835
sg1073
I01
sg1074
I00
sg1075
I01
sg1076
I00
sg1077
g3835
sg973
g1185
sg13
g1186
sg1081
(lp4036
g1
(g1083
g3
NtRp4037
(dp4038
g1086
(lp4039
g1193
asg12
(tsg974
(lp4040
(lp4041
g1196
aasg1092
(lp4042
(lp4043
g1199
aasg1096
(lp4044
(lp4045
g4033
aasg1099
(lp4046
I00
asg1101
g1203
sg1103
(lp4047
g1205
asbasg1106
I00
sbag1
(g1067
g3
NtRp4048
(dp4049
g1070
(lp4050
F9.9999999999999995e-08
aF1000
asg12
(tsg1072
g3835
sg1073
I01
sg1074
I00
sg1075
I01
sg1076
I00
sg1077
g3835
sg973
g1185
sg13
g1186
sg1081
(lp4051
g1
(g1083
g3
NtRp4052
(dp4053
g1086
(lp4054
g1193
asg12
(tsg974
(lp4055
(lp4056
g1196
aasg1092
(lp4057
(lp4058
g1199
aasg1096
(lp4059
(lp4060
g4048
aasg1099
(lp4061
I00
asg1101
g1203
sg1103
(lp4062
g1205
asbasg1106
I00
sbag1
(g1067
g3
NtRp4063
(dp4064
g1070
(lp4065
F9.9999999999999995e-08
aF1000
asg12
(tsg1072
g3835
sg1073
I01
sg1074
I00
sg1075
I01
sg1076
I00
sg1077
g3835
sg973
g1314
sg13
g1315
sg1081
(lp4066
g1
(g1083
g3
NtRp4067
(dp4068
g1086
(lp4069
g1322
asg12
(tsg974
(lp4070
(lp4071
g1106
aasg1092
(lp4072
(lp4073
g1327
aasg1096
(lp4074
(lp4075
g4063
aasg1099
(lp4076
I00
asg1101
g1331
sg1103
(lp4077
g1333
asbasg1106
I00
sbag1
(g1067
g3
NtRp4078
(dp4079
g1070
(lp4080
F9.9999999999999995e-08
aF1000
asg12
(tsg1072
g3835
sg1073
I01
sg1074
I00
sg1075
I01
sg1076
I00
sg1077
g3835
sg973
g1314
sg13
g1315
sg1081
(lp4081
g1
(g1083
g3
NtRp4082
(dp4083
g1086
(lp4084
g1322
asg12
(tsg974
(lp4085
(lp4086
g1106
aasg1092
(lp4087
(lp4088
g1327
aasg1096
(lp4089
(lp4090
g4078
aasg1099
(lp4091
I00
asg1101
g1331
sg1103
(lp4092
g1333
asbasg1106
I00
sbag1
(g1067
g3
NtRp4093
(dp4094
g1070
(lp4095
F9.9999999999999995e-08
aF1000
asg12
(tsg1072
g3835
sg1073
I01
sg1074
I00
sg1075
I01
sg1076
I00
sg1077
g3835
sg973
g1314
sg13
g1315
sg1081
(lp4096
g1
(g1083
g3
NtRp4097
(dp4098
g1086
(lp4099
g1322
asg12
(tsg974
(lp4100
(lp4101
g1106
aasg1092
(lp4102
(lp4103
g1327
aasg1096
(lp4104
(lp4105
g4093
aasg1099
(lp4106
I00
asg1101
g1331
sg1103
(lp4107
g1333
asbasg1106
I00
sbastRp4108
g4108
bbag1
(g1035
g3
NtRp4109
g1
(g5
g6
(dp4110
g8
g1
(g9
g3
NtRp4111
(dp4112
g12
(tsg13
g14
sg16
g1035
sg17
g18
sbsg19
S'degradation of AraC'
p4113
sg29
(lp4114
sg31
g4
sg32
I01
sg33
(lp4115
sg1043
S'g_A'
p4116
sg1045
(lp4117
(S'AraC'
I1
tp4118
asg1047
g1048
sg88
(lp4119
sg91
(lp4120
sg57
(lp4121
sg71
(lp4122
sg1053
(lp4123
sg1058
g1059
sg1060
F1.0000000000000001e-30
sg64
g1061
sg1062
Nsg68
(lp4124
sg70
Nsg1064
F1
sg127
(lp4125
g4111
asg190
(lp4126
g1
(g1067
g3
NtRp4127
(dp4128
g1070
(lp4129
F9.9999999999999995e-08
aF1000
asg12
(tsg1072
g4109
sg1073
I01
sg1074
I00
sg1075
I01
sg1076
I00
sg1077
g4109
sg973
g1043
sg13
g1078
sg1081
(lp4130
g1
(g1083
g3
NtRp4131
(dp4132
g1086
(lp4133
g1088
asg12
(tsg974
(lp4134
(lp4135
g1091
aasg1092
(lp4136
(lp4137
g1095
aasg1096
(lp4138
(lp4139
g4127
aasg1099
(lp4140
I00
asg1101
g1102
sg1103
(lp4141
g1105
asbasg1106
I00
sbag1
(g1067
g3
NtRp4142
(dp4143
g1070
(lp4144
F9.9999999999999995e-08
aF1000
asg12
(tsg1072
g4109
sg1073
I01
sg1074
I00
sg1075
I01
sg1076
I00
sg1077
g4109
sg973
g1043
sg13
g1078
sg1081
(lp4145
g1
(g1083
g3
NtRp4146
(dp4147
g1086
(lp4148
g1088
asg12
(tsg974
(lp4149
(lp4150
g1091
aasg1092
(lp4151
(lp4152
g1095
aasg1096
(lp4153
(lp4154
g4142
aasg1099
(lp4155
I00
asg1101
g1102
sg1103
(lp4156
g1105
asbasg1106
I00
sbag1
(g1067
g3
NtRp4157
(dp4158
g1070
(lp4159
F9.9999999999999995e-08
aF1000
asg12
(tsg1072
g4109
sg1073
I01
sg1074
I00
sg1075
I01
sg1076
I00
sg1077
g4109
sg973
g1043
sg13
g1078
sg1081
(lp4160
g1
(g1083
g3
NtRp4161
(dp4162
g1086
(lp4163
g1088
asg12
(tsg974
(lp4164
(lp4165
g1091
aasg1092
(lp4166
(lp4167
g1095
aasg1096
(lp4168
(lp4169
g4157
aasg1099
(lp4170
I00
asg1101
g1102
sg1103
(lp4171
g1105
asbasg1106
I00
sbag1
(g1067
g3
NtRp4172
(dp4173
g1070
(lp4174
F9.9999999999999995e-08
aF1000
asg12
(tsg1072
g4109
sg1073
I01
sg1074
I00
sg1075
I01
sg1076
I00
sg1077
g4109
sg973
g1043
sg13
g1078
sg1081
(lp4175
g1
(g1083
g3
NtRp4176
(dp4177
g1086
(lp4178
g1088
asg12
(tsg974
(lp4179
(lp4180
g1091
aasg1092
(lp4181
(lp4182
g1095
aasg1096
(lp4183
(lp4184
g4172
aasg1099
(lp4185
I00
asg1101
g1102
sg1103
(lp4186
g1105
asbasg1106
I00
sbag1
(g1067
g3
NtRp4187
(dp4188
g1070
(lp4189
F9.9999999999999995e-08
aF1000
asg12
(tsg1072
g4109
sg1073
I01
sg1074
I00
sg1075
I01
sg1076
I00
sg1077
g4109
sg973
g1043
sg13
g1078
sg1081
(lp4190
g1
(g1083
g3
NtRp4191
(dp4192
g1086
(lp4193
g1088
asg12
(tsg974
(lp4194
(lp4195
g1091
aasg1092
(lp4196
(lp4197
g1095
aasg1096
(lp4198
(lp4199
g4187
aasg1099
(lp4200
I00
asg1101
g1102
sg1103
(lp4201
g1105
asbasg1106
I00
sbag1
(g1067
g3
NtRp4202
(dp4203
g1070
(lp4204
F9.9999999999999995e-08
aF1000
asg12
(tsg1072
g4109
sg1073
I01
sg1074
I00
sg1075
I01
sg1076
I00
sg1077
g4109
sg973
g1043
sg13
g1078
sg1081
(lp4205
g1
(g1083
g3
NtRp4206
(dp4207
g1086
(lp4208
g1088
asg12
(tsg974
(lp4209
(lp4210
g1091
aasg1092
(lp4211
(lp4212
g1095
aasg1096
(lp4213
(lp4214
g4202
aasg1099
(lp4215
I00
asg1101
g1102
sg1103
(lp4216
g1105
asbasg1106
I00
sbag1
(g1067
g3
NtRp4217
(dp4218
g1070
(lp4219
F9.9999999999999995e-08
aF1000
asg12
(tsg1072
g4109
sg1073
I01
sg1074
I00
sg1075
I01
sg1076
I00
sg1077
g4109
sg973
g1185
sg13
g1186
sg1081
(lp4220
g1
(g1083
g3
NtRp4221
(dp4222
g1086
(lp4223
g1193
asg12
(tsg974
(lp4224
(lp4225
g1196
aasg1092
(lp4226
(lp4227
g1199
aasg1096
(lp4228
(lp4229
g4217
aasg1099
(lp4230
I00
asg1101
g1203
sg1103
(lp4231
g1205
asbasg1106
I00
sbag1
(g1067
g3
NtRp4232
(dp4233
g1070
(lp4234
F9.9999999999999995e-08
aF1000
asg12
(tsg1072
g4109
sg1073
I01
sg1074
I00
sg1075
I01
sg1076
I00
sg1077
g4109
sg973
g1185
sg13
g1186
sg1081
(lp4235
g1
(g1083
g3
NtRp4236
(dp4237
g1086
(lp4238
g1193
asg12
(tsg974
(lp4239
(lp4240
g1196
aasg1092
(lp4241
(lp4242
g1199
aasg1096
(lp4243
(lp4244
g4232
aasg1099
(lp4245
I00
asg1101
g1203
sg1103
(lp4246
g1205
asbasg1106
I00
sbag1
(g1067
g3
NtRp4247
(dp4248
g1070
(lp4249
F9.9999999999999995e-08
aF1000
asg12
(tsg1072
g4109
sg1073
I01
sg1074
I00
sg1075
I01
sg1076
I00
sg1077
g4109
sg973
g1185
sg13
g1186
sg1081
(lp4250
g1
(g1083
g3
NtRp4251
(dp4252
g1086
(lp4253
g1193
asg12
(tsg974
(lp4254
(lp4255
g1196
aasg1092
(lp4256
(lp4257
g1199
aasg1096
(lp4258
(lp4259
g4247
aasg1099
(lp4260
I00
asg1101
g1203
sg1103
(lp4261
g1205
asbasg1106
I00
sbag1
(g1067
g3
NtRp4262
(dp4263
g1070
(lp4264
F9.9999999999999995e-08
aF1000
asg12
(tsg1072
g4109
sg1073
I01
sg1074
I00
sg1075
I01
sg1076
I00
sg1077
g4109
sg973
g1185
sg13
g1186
sg1081
(lp4265
g1
(g1083
g3
NtRp4266
(dp4267
g1086
(lp4268
g1193
asg12
(tsg974
(lp4269
(lp4270
g1196
aasg1092
(lp4271
(lp4272
g1199
aasg1096
(lp4273
(lp4274
g4262
aasg1099
(lp4275
I00
asg1101
g1203
sg1103
(lp4276
g1205
asbasg1106
I00
sbag1
(g1067
g3
NtRp4277
(dp4278
g1070
(lp4279
F9.9999999999999995e-08
aF1000
asg12
(tsg1072
g4109
sg1073
I01
sg1074
I00
sg1075
I01
sg1076
I00
sg1077
g4109
sg973
g1185
sg13
g1186
sg1081
(lp4280
g1
(g1083
g3
NtRp4281
(dp4282
g1086
(lp4283
g1193
asg12
(tsg974
(lp4284
(lp4285
g1196
aasg1092
(lp4286
(lp4287
g1199
aasg1096
(lp4288
(lp4289
g4277
aasg1099
(lp4290
I00
asg1101
g1203
sg1103
(lp4291
g1205
asbasg1106
I00
sbag1
(g1067
g3
NtRp4292
(dp4293
g1070
(lp4294
F9.9999999999999995e-08
aF1000
asg12
(tsg1072
g4109
sg1073
I01
sg1074
I00
sg1075
I01
sg1076
I00
sg1077
g4109
sg973
g1185
sg13
g1186
sg1081
(lp4295
g1
(g1083
g3
NtRp4296
(dp4297
g1086
(lp4298
g1193
asg12
(tsg974
(lp4299
(lp4300
g1196
aasg1092
(lp4301
(lp4302
g1199
aasg1096
(lp4303
(lp4304
g4292
aasg1099
(lp4305
I00
asg1101
g1203
sg1103
(lp4306
g1205
asbasg1106
I00
sbag1
(g1067
g3
NtRp4307
(dp4308
g1070
(lp4309
F9.9999999999999995e-08
aF1000
asg12
(tsg1072
g4109
sg1073
I01
sg1074
I00
sg1075
I01
sg1076
I00
sg1077
g4109
sg973
g1185
sg13
g1186
sg1081
(lp4310
g1
(g1083
g3
NtRp4311
(dp4312
g1086
(lp4313
g1193
asg12
(tsg974
(lp4314
(lp4315
g1196
aasg1092
(lp4316
(lp4317
g1199
aasg1096
(lp4318
(lp4319
g4307
aasg1099
(lp4320
I00
asg1101
g1203
sg1103
(lp4321
g1205
asbasg1106
I00
sbag1
(g1067
g3
NtRp4322
(dp4323
g1070
(lp4324
F9.9999999999999995e-08
aF1000
asg12
(tsg1072
g4109
sg1073
I01
sg1074
I00
sg1075
I01
sg1076
I00
sg1077
g4109
sg973
g1185
sg13
g1186
sg1081
(lp4325
g1
(g1083
g3
NtRp4326
(dp4327
g1086
(lp4328
g1193
asg12
(tsg974
(lp4329
(lp4330
g1196
aasg1092
(lp4331
(lp4332
g1199
aasg1096
(lp4333
(lp4334
g4322
aasg1099
(lp4335
I00
asg1101
g1203
sg1103
(lp4336
g1205
asbasg1106
I00
sbag1
(g1067
g3
NtRp4337
(dp4338
g1070
(lp4339
F9.9999999999999995e-08
aF1000
asg12
(tsg1072
g4109
sg1073
I01
sg1074
I00
sg1075
I01
sg1076
I00
sg1077
g4109
sg973
g1314
sg13
g1315
sg1081
(lp4340
g1
(g1083
g3
NtRp4341
(dp4342
g1086
(lp4343
g1322
asg12
(tsg974
(lp4344
(lp4345
g1106
aasg1092
(lp4346
(lp4347
g1327
aasg1096
(lp4348
(lp4349
g4337
aasg1099
(lp4350
I00
asg1101
g1331
sg1103
(lp4351
g1333
asbasg1106
I00
sbag1
(g1067
g3
NtRp4352
(dp4353
g1070
(lp4354
F9.9999999999999995e-08
aF1000
asg12
(tsg1072
g4109
sg1073
I01
sg1074
I00
sg1075
I01
sg1076
I00
sg1077
g4109
sg973
g1314
sg13
g1315
sg1081
(lp4355
g1
(g1083
g3
NtRp4356
(dp4357
g1086
(lp4358
g1322
asg12
(tsg974
(lp4359
(lp4360
g1106
aasg1092
(lp4361
(lp4362
g1327
aasg1096
(lp4363
(lp4364
g4352
aasg1099
(lp4365
I00
asg1101
g1331
sg1103
(lp4366
g1333
asbasg1106
I00
sbag1
(g1067
g3
NtRp4367
(dp4368
g1070
(lp4369
F9.9999999999999995e-08
aF1000
asg12
(tsg1072
g4109
sg1073
I01
sg1074
I00
sg1075
I01
sg1076
I00
sg1077
g4109
sg973
g1314
sg13
g1315
sg1081
(lp4370
g1
(g1083
g3
NtRp4371
(dp4372
g1086
(lp4373
g1322
asg12
(tsg974
(lp4374
(lp4375
g1106
aasg1092
(lp4376
(lp4377
g1327
aasg1096
(lp4378
(lp4379
g4367
aasg1099
(lp4380
I00
asg1101
g1331
sg1103
(lp4381
g1333
asbasg1106
I00
sbastRp4382
g4382
bbag1
(g1035
g3
NtRp4383
g1
(g5
g6
(dp4384
g8
g1
(g9
g3
NtRp4385
(dp4386
g12
(tsg13
g14
sg16
g1035
sg17
g18
sbsg19
S'degradation of AraC2'
p4387
sg29
(lp4388
sg31
g4
sg32
I01
sg33
(lp4389
sg1043
S'g_A2'
p4390
sg1045
(lp4391
(S'AraC2'
I1
tp4392
asg1047
g1048
sg88
(lp4393
sg91
(lp4394
sg57
(lp4395
sg71
(lp4396
sg1053
(lp4397
sg1058
g1059
sg1060
F1.0000000000000001e-30
sg64
g1061
sg1062
Nsg68
(lp4398
sg70
Nsg1064
F1
sg127
(lp4399
g4385
asg190
(lp4400
g1
(g1067
g3
NtRp4401
(dp4402
g1070
(lp4403
F9.9999999999999995e-08
aF1000
asg12
(tsg1072
g4383
sg1073
I01
sg1074
I00
sg1075
I01
sg1076
I00
sg1077
g4383
sg973
g1043
sg13
g1078
sg1081
(lp4404
g1
(g1083
g3
NtRp4405
(dp4406
g1086
(lp4407
g1088
asg12
(tsg974
(lp4408
(lp4409
g1091
aasg1092
(lp4410
(lp4411
g1095
aasg1096
(lp4412
(lp4413
g4401
aasg1099
(lp4414
I00
asg1101
g1102
sg1103
(lp4415
g1105
asbasg1106
I00
sbag1
(g1067
g3
NtRp4416
(dp4417
g1070
(lp4418
F9.9999999999999995e-08
aF1000
asg12
(tsg1072
g4383
sg1073
I01
sg1074
I00
sg1075
I01
sg1076
I00
sg1077
g4383
sg973
g1043
sg13
g1078
sg1081
(lp4419
g1
(g1083
g3
NtRp4420
(dp4421
g1086
(lp4422
g1088
asg12
(tsg974
(lp4423
(lp4424
g1091
aasg1092
(lp4425
(lp4426
g1095
aasg1096
(lp4427
(lp4428
g4416
aasg1099
(lp4429
I00
asg1101
g1102
sg1103
(lp4430
g1105
asbasg1106
I00
sbag1
(g1067
g3
NtRp4431
(dp4432
g1070
(lp4433
F9.9999999999999995e-08
aF1000
asg12
(tsg1072
g4383
sg1073
I01
sg1074
I00
sg1075
I01
sg1076
I00
sg1077
g4383
sg973
g1043
sg13
g1078
sg1081
(lp4434
g1
(g1083
g3
NtRp4435
(dp4436
g1086
(lp4437
g1088
asg12
(tsg974
(lp4438
(lp4439
g1091
aasg1092
(lp4440
(lp4441
g1095
aasg1096
(lp4442
(lp4443
g4431
aasg1099
(lp4444
I00
asg1101
g1102
sg1103
(lp4445
g1105
asbasg1106
I00
sbag1
(g1067
g3
NtRp4446
(dp4447
g1070
(lp4448
F9.9999999999999995e-08
aF1000
asg12
(tsg1072
g4383
sg1073
I01
sg1074
I00
sg1075
I01
sg1076
I00
sg1077
g4383
sg973
g1043
sg13
g1078
sg1081
(lp4449
g1
(g1083
g3
NtRp4450
(dp4451
g1086
(lp4452
g1088
asg12
(tsg974
(lp4453
(lp4454
g1091
aasg1092
(lp4455
(lp4456
g1095
aasg1096
(lp4457
(lp4458
g4446
aasg1099
(lp4459
I00
asg1101
g1102
sg1103
(lp4460
g1105
asbasg1106
I00
sbag1
(g1067
g3
NtRp4461
(dp4462
g1070
(lp4463
F9.9999999999999995e-08
aF1000
asg12
(tsg1072
g4383
sg1073
I01
sg1074
I00
sg1075
I01
sg1076
I00
sg1077
g4383
sg973
g1043
sg13
g1078
sg1081
(lp4464
g1
(g1083
g3
NtRp4465
(dp4466
g1086
(lp4467
g1088
asg12
(tsg974
(lp4468
(lp4469
g1091
aasg1092
(lp4470
(lp4471
g1095
aasg1096
(lp4472
(lp4473
g4461
aasg1099
(lp4474
I00
asg1101
g1102
sg1103
(lp4475
g1105
asbasg1106
I00
sbag1
(g1067
g3
NtRp4476
(dp4477
g1070
(lp4478
F9.9999999999999995e-08
aF1000
asg12
(tsg1072
g4383
sg1073
I01
sg1074
I00
sg1075
I01
sg1076
I00
sg1077
g4383
sg973
g1043
sg13
g1078
sg1081
(lp4479
g1
(g1083
g3
NtRp4480
(dp4481
g1086
(lp4482
g1088
asg12
(tsg974
(lp4483
(lp4484
g1091
aasg1092
(lp4485
(lp4486
g1095
aasg1096
(lp4487
(lp4488
g4476
aasg1099
(lp4489
I00
asg1101
g1102
sg1103
(lp4490
g1105
asbasg1106
I00
sbag1
(g1067
g3
NtRp4491
(dp4492
g1070
(lp4493
F9.9999999999999995e-08
aF1000
asg12
(tsg1072
g4383
sg1073
I01
sg1074
I00
sg1075
I01
sg1076
I00
sg1077
g4383
sg973
g1185
sg13
g1186
sg1081
(lp4494
g1
(g1083
g3
NtRp4495
(dp4496
g1086
(lp4497
g1193
asg12
(tsg974
(lp4498
(lp4499
g1196
aasg1092
(lp4500
(lp4501
g1199
aasg1096
(lp4502
(lp4503
g4491
aasg1099
(lp4504
I00
asg1101
g1203
sg1103
(lp4505
g1205
asbasg1106
I00
sbag1
(g1067
g3
NtRp4506
(dp4507
g1070
(lp4508
F9.9999999999999995e-08
aF1000
asg12
(tsg1072
g4383
sg1073
I01
sg1074
I00
sg1075
I01
sg1076
I00
sg1077
g4383
sg973
g1185
sg13
g1186
sg1081
(lp4509
g1
(g1083
g3
NtRp4510
(dp4511
g1086
(lp4512
g1193
asg12
(tsg974
(lp4513
(lp4514
g1196
aasg1092
(lp4515
(lp4516
g1199
aasg1096
(lp4517
(lp4518
g4506
aasg1099
(lp4519
I00
asg1101
g1203
sg1103
(lp4520
g1205
asbasg1106
I00
sbag1
(g1067
g3
NtRp4521
(dp4522
g1070
(lp4523
F9.9999999999999995e-08
aF1000
asg12
(tsg1072
g4383
sg1073
I01
sg1074
I00
sg1075
I01
sg1076
I00
sg1077
g4383
sg973
g1185
sg13
g1186
sg1081
(lp4524
g1
(g1083
g3
NtRp4525
(dp4526
g1086
(lp4527
g1193
asg12
(tsg974
(lp4528
(lp4529
g1196
aasg1092
(lp4530
(lp4531
g1199
aasg1096
(lp4532
(lp4533
g4521
aasg1099
(lp4534
I00
asg1101
g1203
sg1103
(lp4535
g1205
asbasg1106
I00
sbag1
(g1067
g3
NtRp4536
(dp4537
g1070
(lp4538
F9.9999999999999995e-08
aF1000
asg12
(tsg1072
g4383
sg1073
I01
sg1074
I00
sg1075
I01
sg1076
I00
sg1077
g4383
sg973
g1185
sg13
g1186
sg1081
(lp4539
g1
(g1083
g3
NtRp4540
(dp4541
g1086
(lp4542
g1193
asg12
(tsg974
(lp4543
(lp4544
g1196
aasg1092
(lp4545
(lp4546
g1199
aasg1096
(lp4547
(lp4548
g4536
aasg1099
(lp4549
I00
asg1101
g1203
sg1103
(lp4550
g1205
asbasg1106
I00
sbag1
(g1067
g3
NtRp4551
(dp4552
g1070
(lp4553
F9.9999999999999995e-08
aF1000
asg12
(tsg1072
g4383
sg1073
I01
sg1074
I00
sg1075
I01
sg1076
I00
sg1077
g4383
sg973
g1185
sg13
g1186
sg1081
(lp4554
g1
(g1083
g3
NtRp4555
(dp4556
g1086
(lp4557
g1193
asg12
(tsg974
(lp4558
(lp4559
g1196
aasg1092
(lp4560
(lp4561
g1199
aasg1096
(lp4562
(lp4563
g4551
aasg1099
(lp4564
I00
asg1101
g1203
sg1103
(lp4565
g1205
asbasg1106
I00
sbag1
(g1067
g3
NtRp4566
(dp4567
g1070
(lp4568
F9.9999999999999995e-08
aF1000
asg12
(tsg1072
g4383
sg1073
I01
sg1074
I00
sg1075
I01
sg1076
I00
sg1077
g4383
sg973
g1185
sg13
g1186
sg1081
(lp4569
g1
(g1083
g3
NtRp4570
(dp4571
g1086
(lp4572
g1193
asg12
(tsg974
(lp4573
(lp4574
g1196
aasg1092
(lp4575
(lp4576
g1199
aasg1096
(lp4577
(lp4578
g4566
aasg1099
(lp4579
I00
asg1101
g1203
sg1103
(lp4580
g1205
asbasg1106
I00
sbag1
(g1067
g3
NtRp4581
(dp4582
g1070
(lp4583
F9.9999999999999995e-08
aF1000
asg12
(tsg1072
g4383
sg1073
I01
sg1074
I00
sg1075
I01
sg1076
I00
sg1077
g4383
sg973
g1185
sg13
g1186
sg1081
(lp4584
g1
(g1083
g3
NtRp4585
(dp4586
g1086
(lp4587
g1193
asg12
(tsg974
(lp4588
(lp4589
g1196
aasg1092
(lp4590
(lp4591
g1199
aasg1096
(lp4592
(lp4593
g4581
aasg1099
(lp4594
I00
asg1101
g1203
sg1103
(lp4595
g1205
asbasg1106
I00
sbag1
(g1067
g3
NtRp4596
(dp4597
g1070
(lp4598
F9.9999999999999995e-08
aF1000
asg12
(tsg1072
g4383
sg1073
I01
sg1074
I00
sg1075
I01
sg1076
I00
sg1077
g4383
sg973
g1185
sg13
g1186
sg1081
(lp4599
g1
(g1083
g3
NtRp4600
(dp4601
g1086
(lp4602
g1193
asg12
(tsg974
(lp4603
(lp4604
g1196
aasg1092
(lp4605
(lp4606
g1199
aasg1096
(lp4607
(lp4608
g4596
aasg1099
(lp4609
I00
asg1101
g1203
sg1103
(lp4610
g1205
asbasg1106
I00
sbag1
(g1067
g3
NtRp4611
(dp4612
g1070
(lp4613
F9.9999999999999995e-08
aF1000
asg12
(tsg1072
g4383
sg1073
I01
sg1074
I00
sg1075
I01
sg1076
I00
sg1077
g4383
sg973
g1314
sg13
g1315
sg1081
(lp4614
g1
(g1083
g3
NtRp4615
(dp4616
g1086
(lp4617
g1322
asg12
(tsg974
(lp4618
(lp4619
g1106
aasg1092
(lp4620
(lp4621
g1327
aasg1096
(lp4622
(lp4623
g4611
aasg1099
(lp4624
I00
asg1101
g1331
sg1103
(lp4625
g1333
asbasg1106
I00
sbag1
(g1067
g3
NtRp4626
(dp4627
g1070
(lp4628
F9.9999999999999995e-08
aF1000
asg12
(tsg1072
g4383
sg1073
I01
sg1074
I00
sg1075
I01
sg1076
I00
sg1077
g4383
sg973
g1314
sg13
g1315
sg1081
(lp4629
g1
(g1083
g3
NtRp4630
(dp4631
g1086
(lp4632
g1322
asg12
(tsg974
(lp4633
(lp4634
g1106
aasg1092
(lp4635
(lp4636
g1327
aasg1096
(lp4637
(lp4638
g4626
aasg1099
(lp4639
I00
asg1101
g1331
sg1103
(lp4640
g1333
asbasg1106
I00
sbag1
(g1067
g3
NtRp4641
(dp4642
g1070
(lp4643
F9.9999999999999995e-08
aF1000
asg12
(tsg1072
g4383
sg1073
I01
sg1074
I00
sg1075
I01
sg1076
I00
sg1077
g4383
sg973
g1314
sg13
g1315
sg1081
(lp4644
g1
(g1083
g3
NtRp4645
(dp4646
g1086
(lp4647
g1322
asg12
(tsg974
(lp4648
(lp4649
g1106
aasg1092
(lp4650
(lp4651
g1327
aasg1096
(lp4652
(lp4653
g4641
aasg1099
(lp4654
I00
asg1101
g1331
sg1103
(lp4655
g1333
asbasg1106
I00
sbastRp4656
g4656
bbag1
(g1035
g3
NtRp4657
g1
(g5
g6
(dp4658
g8
g1
(g9
g3
NtRp4659
(dp4660
g12
(tsg13
g14
sg16
g1035
sg17
g18
sbsg19
S'diffusion/division of GFP'
p4661
sg29
(lp4662
sg31
g4
sg32
I01
sg33
(lp4663
sg1043
S'gamma_G'
p4664
sg1045
(lp4665
(S'GFP'
I1
tp4666
asg1047
g1048
sg88
(lp4667
sg91
(lp4668
sg57
(lp4669
sg71
(lp4670
sg1053
(lp4671
sg1058
g1059
sg1060
F1.0000000000000001e-30
sg64
g1061
sg1062
Nsg68
(lp4672
sg70
Nsg1064
F1
sg127
(lp4673
g4659
asg190
(lp4674
g1
(g1067
g3
NtRp4675
(dp4676
g1070
(lp4677
F9.9999999999999995e-08
aF1000
asg12
(tsg1072
g4657
sg1073
I01
sg1074
I00
sg1075
I01
sg1076
I00
sg1077
g4657
sg973
g1043
sg13
g1078
sg1081
(lp4678
g1
(g1083
g3
NtRp4679
(dp4680
g1086
(lp4681
g1088
asg12
(tsg974
(lp4682
(lp4683
g1091
aasg1092
(lp4684
(lp4685
g1095
aasg1096
(lp4686
(lp4687
g4675
aasg1099
(lp4688
I00
asg1101
g1102
sg1103
(lp4689
g1105
asbasg1106
I00
sbag1
(g1067
g3
NtRp4690
(dp4691
g1070
(lp4692
F9.9999999999999995e-08
aF1000
asg12
(tsg1072
g4657
sg1073
I01
sg1074
I00
sg1075
I01
sg1076
I00
sg1077
g4657
sg973
g1043
sg13
g1078
sg1081
(lp4693
g1
(g1083
g3
NtRp4694
(dp4695
g1086
(lp4696
g1088
asg12
(tsg974
(lp4697
(lp4698
g1091
aasg1092
(lp4699
(lp4700
g1095
aasg1096
(lp4701
(lp4702
g4690
aasg1099
(lp4703
I00
asg1101
g1102
sg1103
(lp4704
g1105
asbasg1106
I00
sbag1
(g1067
g3
NtRp4705
(dp4706
g1070
(lp4707
F9.9999999999999995e-08
aF1000
asg12
(tsg1072
g4657
sg1073
I01
sg1074
I00
sg1075
I01
sg1076
I00
sg1077
g4657
sg973
g1043
sg13
g1078
sg1081
(lp4708
g1
(g1083
g3
NtRp4709
(dp4710
g1086
(lp4711
g1088
asg12
(tsg974
(lp4712
(lp4713
g1091
aasg1092
(lp4714
(lp4715
g1095
aasg1096
(lp4716
(lp4717
g4705
aasg1099
(lp4718
I00
asg1101
g1102
sg1103
(lp4719
g1105
asbasg1106
I00
sbag1
(g1067
g3
NtRp4720
(dp4721
g1070
(lp4722
F9.9999999999999995e-08
aF1000
asg12
(tsg1072
g4657
sg1073
I01
sg1074
I00
sg1075
I01
sg1076
I00
sg1077
g4657
sg973
g1043
sg13
g1078
sg1081
(lp4723
g1
(g1083
g3
NtRp4724
(dp4725
g1086
(lp4726
g1088
asg12
(tsg974
(lp4727
(lp4728
g1091
aasg1092
(lp4729
(lp4730
g1095
aasg1096
(lp4731
(lp4732
g4720
aasg1099
(lp4733
I00
asg1101
g1102
sg1103
(lp4734
g1105
asbasg1106
I00
sbag1
(g1067
g3
NtRp4735
(dp4736
g1070
(lp4737
F9.9999999999999995e-08
aF1000
asg12
(tsg1072
g4657
sg1073
I01
sg1074
I00
sg1075
I01
sg1076
I00
sg1077
g4657
sg973
g1043
sg13
g1078
sg1081
(lp4738
g1
(g1083
g3
NtRp4739
(dp4740
g1086
(lp4741
g1088
asg12
(tsg974
(lp4742
(lp4743
g1091
aasg1092
(lp4744
(lp4745
g1095
aasg1096
(lp4746
(lp4747
g4735
aasg1099
(lp4748
I00
asg1101
g1102
sg1103
(lp4749
g1105
asbasg1106
I00
sbag1
(g1067
g3
NtRp4750
(dp4751
g1070
(lp4752
F9.9999999999999995e-08
aF1000
asg12
(tsg1072
g4657
sg1073
I01
sg1074
I00
sg1075
I01
sg1076
I00
sg1077
g4657
sg973
g1043
sg13
g1078
sg1081
(lp4753
g1
(g1083
g3
NtRp4754
(dp4755
g1086
(lp4756
g1088
asg12
(tsg974
(lp4757
(lp4758
g1091
aasg1092
(lp4759
(lp4760
g1095
aasg1096
(lp4761
(lp4762
g4750
aasg1099
(lp4763
I00
asg1101
g1102
sg1103
(lp4764
g1105
asbasg1106
I00
sbag1
(g1067
g3
NtRp4765
(dp4766
g1070
(lp4767
F9.9999999999999995e-08
aF1000
asg12
(tsg1072
g4657
sg1073
I01
sg1074
I00
sg1075
I01
sg1076
I00
sg1077
g4657
sg973
g1185
sg13
g1186
sg1081
(lp4768
g1
(g1083
g3
NtRp4769
(dp4770
g1086
(lp4771
g1193
asg12
(tsg974
(lp4772
(lp4773
g1196
aasg1092
(lp4774
(lp4775
g1199
aasg1096
(lp4776
(lp4777
g4765
aasg1099
(lp4778
I00
asg1101
g1203
sg1103
(lp4779
g1205
asbasg1106
I00
sbag1
(g1067
g3
NtRp4780
(dp4781
g1070
(lp4782
F9.9999999999999995e-08
aF1000
asg12
(tsg1072
g4657
sg1073
I01
sg1074
I00
sg1075
I01
sg1076
I00
sg1077
g4657
sg973
g1185
sg13
g1186
sg1081
(lp4783
g1
(g1083
g3
NtRp4784
(dp4785
g1086
(lp4786
g1193
asg12
(tsg974
(lp4787
(lp4788
g1196
aasg1092
(lp4789
(lp4790
g1199
aasg1096
(lp4791
(lp4792
g4780
aasg1099
(lp4793
I00
asg1101
g1203
sg1103
(lp4794
g1205
asbasg1106
I00
sbag1
(g1067
g3
NtRp4795
(dp4796
g1070
(lp4797
F9.9999999999999995e-08
aF1000
asg12
(tsg1072
g4657
sg1073
I01
sg1074
I00
sg1075
I01
sg1076
I00
sg1077
g4657
sg973
g1185
sg13
g1186
sg1081
(lp4798
g1
(g1083
g3
NtRp4799
(dp4800
g1086
(lp4801
g1193
asg12
(tsg974
(lp4802
(lp4803
g1196
aasg1092
(lp4804
(lp4805
g1199
aasg1096
(lp4806
(lp4807
g4795
aasg1099
(lp4808
I00
asg1101
g1203
sg1103
(lp4809
g1205
asbasg1106
I00
sbag1
(g1067
g3
NtRp4810
(dp4811
g1070
(lp4812
F9.9999999999999995e-08
aF1000
asg12
(tsg1072
g4657
sg1073
I01
sg1074
I00
sg1075
I01
sg1076
I00
sg1077
g4657
sg973
g1185
sg13
g1186
sg1081
(lp4813
g1
(g1083
g3
NtRp4814
(dp4815
g1086
(lp4816
g1193
asg12
(tsg974
(lp4817
(lp4818
g1196
aasg1092
(lp4819
(lp4820
g1199
aasg1096
(lp4821
(lp4822
g4810
aasg1099
(lp4823
I00
asg1101
g1203
sg1103
(lp4824
g1205
asbasg1106
I00
sbag1
(g1067
g3
NtRp4825
(dp4826
g1070
(lp4827
F9.9999999999999995e-08
aF1000
asg12
(tsg1072
g4657
sg1073
I01
sg1074
I00
sg1075
I01
sg1076
I00
sg1077
g4657
sg973
g1185
sg13
g1186
sg1081
(lp4828
g1
(g1083
g3
NtRp4829
(dp4830
g1086
(lp4831
g1193
asg12
(tsg974
(lp4832
(lp4833
g1196
aasg1092
(lp4834
(lp4835
g1199
aasg1096
(lp4836
(lp4837
g4825
aasg1099
(lp4838
I00
asg1101
g1203
sg1103
(lp4839
g1205
asbasg1106
I00
sbag1
(g1067
g3
NtRp4840
(dp4841
g1070
(lp4842
F9.9999999999999995e-08
aF1000
asg12
(tsg1072
g4657
sg1073
I01
sg1074
I00
sg1075
I01
sg1076
I00
sg1077
g4657
sg973
g1185
sg13
g1186
sg1081
(lp4843
g1
(g1083
g3
NtRp4844
(dp4845
g1086
(lp4846
g1193
asg12
(tsg974
(lp4847
(lp4848
g1196
aasg1092
(lp4849
(lp4850
g1199
aasg1096
(lp4851
(lp4852
g4840
aasg1099
(lp4853
I00
asg1101
g1203
sg1103
(lp4854
g1205
asbasg1106
I00
sbag1
(g1067
g3
NtRp4855
(dp4856
g1070
(lp4857
F9.9999999999999995e-08
aF1000
asg12
(tsg1072
g4657
sg1073
I01
sg1074
I00
sg1075
I01
sg1076
I00
sg1077
g4657
sg973
g1185
sg13
g1186
sg1081
(lp4858
g1
(g1083
g3
NtRp4859
(dp4860
g1086
(lp4861
g1193
asg12
(tsg974
(lp4862
(lp4863
g1196
aasg1092
(lp4864
(lp4865
g1199
aasg1096
(lp4866
(lp4867
g4855
aasg1099
(lp4868
I00
asg1101
g1203
sg1103
(lp4869
g1205
asbasg1106
I00
sbag1
(g1067
g3
NtRp4870
(dp4871
g1070
(lp4872
F9.9999999999999995e-08
aF1000
asg12
(tsg1072
g4657
sg1073
I01
sg1074
I00
sg1075
I01
sg1076
I00
sg1077
g4657
sg973
g1185
sg13
g1186
sg1081
(lp4873
g1
(g1083
g3
NtRp4874
(dp4875
g1086
(lp4876
g1193
asg12
(tsg974
(lp4877
(lp4878
g1196
aasg1092
(lp4879
(lp4880
g1199
aasg1096
(lp4881
(lp4882
g4870
aasg1099
(lp4883
I00
asg1101
g1203
sg1103
(lp4884
g1205
asbasg1106
I00
sbag1
(g1067
g3
NtRp4885
(dp4886
g1070
(lp4887
F9.9999999999999995e-08
aF1000
asg12
(tsg1072
g4657
sg1073
I01
sg1074
I00
sg1075
I01
sg1076
I00
sg1077
g4657
sg973
g1314
sg13
g1315
sg1081
(lp4888
g1
(g1083
g3
NtRp4889
(dp4890
g1086
(lp4891
g1322
asg12
(tsg974
(lp4892
(lp4893
g1106
aasg1092
(lp4894
(lp4895
g1327
aasg1096
(lp4896
(lp4897
g4885
aasg1099
(lp4898
I00
asg1101
g1331
sg1103
(lp4899
g1333
asbasg1106
I00
sbag1
(g1067
g3
NtRp4900
(dp4901
g1070
(lp4902
F9.9999999999999995e-08
aF1000
asg12
(tsg1072
g4657
sg1073
I01
sg1074
I00
sg1075
I01
sg1076
I00
sg1077
g4657
sg973
g1314
sg13
g1315
sg1081
(lp4903
g1
(g1083
g3
NtRp4904
(dp4905
g1086
(lp4906
g1322
asg12
(tsg974
(lp4907
(lp4908
g1106
aasg1092
(lp4909
(lp4910
g1327
aasg1096
(lp4911
(lp4912
g4900
aasg1099
(lp4913
I00
asg1101
g1331
sg1103
(lp4914
g1333
asbasg1106
I00
sbag1
(g1067
g3
NtRp4915
(dp4916
g1070
(lp4917
F9.9999999999999995e-08
aF1000
asg12
(tsg1072
g4657
sg1073
I01
sg1074
I00
sg1075
I01
sg1076
I00
sg1077
g4657
sg973
g1314
sg13
g1315
sg1081
(lp4918
g1
(g1083
g3
NtRp4919
(dp4920
g1086
(lp4921
g1322
asg12
(tsg974
(lp4922
(lp4923
g1106
aasg1092
(lp4924
(lp4925
g1327
aasg1096
(lp4926
(lp4927
g4915
aasg1099
(lp4928
I00
asg1101
g1331
sg1103
(lp4929
g1333
asbasg1106
I00
sbastRp4930
g4930
bbag1
(g1035
g3
NtRp4931
g1
(g5
g6
(dp4932
g8
g1
(g9
g3
NtRp4933
(dp4934
g12
(tsg13
g14
sg16
g1035
sg17
g18
sbsg19
S'diffusion/division of CFP'
p4935
sg29
(lp4936
sg31
g4
sg32
I01
sg33
(lp4937
sg1043
S'gamma_C'
p4938
sg1045
(lp4939
(S'CFP'
I1
tp4940
asg1047
g1048
sg88
(lp4941
sg91
(lp4942
sg57
(lp4943
sg71
(lp4944
sg1053
(lp4945
sg1058
g1059
sg1060
F1.0000000000000001e-30
sg64
g1061
sg1062
Nsg68
(lp4946
sg70
Nsg1064
F1
sg127
(lp4947
g4933
asg190
(lp4948
g1
(g1067
g3
NtRp4949
(dp4950
g1070
(lp4951
F9.9999999999999995e-08
aF1000
asg12
(tsg1072
g4931
sg1073
I01
sg1074
I00
sg1075
I01
sg1076
I00
sg1077
g4931
sg973
g1043
sg13
g1078
sg1081
(lp4952
g1
(g1083
g3
NtRp4953
(dp4954
g1086
(lp4955
g1088
asg12
(tsg974
(lp4956
(lp4957
g1091
aasg1092
(lp4958
(lp4959
g1095
aasg1096
(lp4960
(lp4961
g4949
aasg1099
(lp4962
I00
asg1101
g1102
sg1103
(lp4963
g1105
asbasg1106
I00
sbag1
(g1067
g3
NtRp4964
(dp4965
g1070
(lp4966
F9.9999999999999995e-08
aF1000
asg12
(tsg1072
g4931
sg1073
I01
sg1074
I00
sg1075
I01
sg1076
I00
sg1077
g4931
sg973
g1043
sg13
g1078
sg1081
(lp4967
g1
(g1083
g3
NtRp4968
(dp4969
g1086
(lp4970
g1088
asg12
(tsg974
(lp4971
(lp4972
g1091
aasg1092
(lp4973
(lp4974
g1095
aasg1096
(lp4975
(lp4976
g4964
aasg1099
(lp4977
I00
asg1101
g1102
sg1103
(lp4978
g1105
asbasg1106
I00
sbag1
(g1067
g3
NtRp4979
(dp4980
g1070
(lp4981
F9.9999999999999995e-08
aF1000
asg12
(tsg1072
g4931
sg1073
I01
sg1074
I00
sg1075
I01
sg1076
I00
sg1077
g4931
sg973
g1043
sg13
g1078
sg1081
(lp4982
g1
(g1083
g3
NtRp4983
(dp4984
g1086
(lp4985
g1088
asg12
(tsg974
(lp4986
(lp4987
g1091
aasg1092
(lp4988
(lp4989
g1095
aasg1096
(lp4990
(lp4991
g4979
aasg1099
(lp4992
I00
asg1101
g1102
sg1103
(lp4993
g1105
asbasg1106
I00
sbag1
(g1067
g3
NtRp4994
(dp4995
g1070
(lp4996
F9.9999999999999995e-08
aF1000
asg12
(tsg1072
g4931
sg1073
I01
sg1074
I00
sg1075
I01
sg1076
I00
sg1077
g4931
sg973
g1043
sg13
g1078
sg1081
(lp4997
g1
(g1083
g3
NtRp4998
(dp4999
g1086
(lp5000
g1088
asg12
(tsg974
(lp5001
(lp5002
g1091
aasg1092
(lp5003
(lp5004
g1095
aasg1096
(lp5005
(lp5006
g4994
aasg1099
(lp5007
I00
asg1101
g1102
sg1103
(lp5008
g1105
asbasg1106
I00
sbag1
(g1067
g3
NtRp5009
(dp5010
g1070
(lp5011
F9.9999999999999995e-08
aF1000
asg12
(tsg1072
g4931
sg1073
I01
sg1074
I00
sg1075
I01
sg1076
I00
sg1077
g4931
sg973
g1043
sg13
g1078
sg1081
(lp5012
g1
(g1083
g3
NtRp5013
(dp5014
g1086
(lp5015
g1088
asg12
(tsg974
(lp5016
(lp5017
g1091
aasg1092
(lp5018
(lp5019
g1095
aasg1096
(lp5020
(lp5021
g5009
aasg1099
(lp5022
I00
asg1101
g1102
sg1103
(lp5023
g1105
asbasg1106
I00
sbag1
(g1067
g3
NtRp5024
(dp5025
g1070
(lp5026
F9.9999999999999995e-08
aF1000
asg12
(tsg1072
g4931
sg1073
I01
sg1074
I00
sg1075
I01
sg1076
I00
sg1077
g4931
sg973
g1043
sg13
g1078
sg1081
(lp5027
g1
(g1083
g3
NtRp5028
(dp5029
g1086
(lp5030
g1088
asg12
(tsg974
(lp5031
(lp5032
g1091
aasg1092
(lp5033
(lp5034
g1095
aasg1096
(lp5035
(lp5036
g5024
aasg1099
(lp5037
I00
asg1101
g1102
sg1103
(lp5038
g1105
asbasg1106
I00
sbag1
(g1067
g3
NtRp5039
(dp5040
g1070
(lp5041
F9.9999999999999995e-08
aF1000
asg12
(tsg1072
g4931
sg1073
I01
sg1074
I00
sg1075
I01
sg1076
I00
sg1077
g4931
sg973
g1185
sg13
g1186
sg1081
(lp5042
g1
(g1083
g3
NtRp5043
(dp5044
g1086
(lp5045
g1193
asg12
(tsg974
(lp5046
(lp5047
g1196
aasg1092
(lp5048
(lp5049
g1199
aasg1096
(lp5050
(lp5051
g5039
aasg1099
(lp5052
I00
asg1101
g1203
sg1103
(lp5053
g1205
asbasg1106
I00
sbag1
(g1067
g3
NtRp5054
(dp5055
g1070
(lp5056
F9.9999999999999995e-08
aF1000
asg12
(tsg1072
g4931
sg1073
I01
sg1074
I00
sg1075
I01
sg1076
I00
sg1077
g4931
sg973
g1185
sg13
g1186
sg1081
(lp5057
g1
(g1083
g3
NtRp5058
(dp5059
g1086
(lp5060
g1193
asg12
(tsg974
(lp5061
(lp5062
g1196
aasg1092
(lp5063
(lp5064
g1199
aasg1096
(lp5065
(lp5066
g5054
aasg1099
(lp5067
I00
asg1101
g1203
sg1103
(lp5068
g1205
asbasg1106
I00
sbag1
(g1067
g3
NtRp5069
(dp5070
g1070
(lp5071
F9.9999999999999995e-08
aF1000
asg12
(tsg1072
g4931
sg1073
I01
sg1074
I00
sg1075
I01
sg1076
I00
sg1077
g4931
sg973
g1185
sg13
g1186
sg1081
(lp5072
g1
(g1083
g3
NtRp5073
(dp5074
g1086
(lp5075
g1193
asg12
(tsg974
(lp5076
(lp5077
g1196
aasg1092
(lp5078
(lp5079
g1199
aasg1096
(lp5080
(lp5081
g5069
aasg1099
(lp5082
I00
asg1101
g1203
sg1103
(lp5083
g1205
asbasg1106
I00
sbag1
(g1067
g3
NtRp5084
(dp5085
g1070
(lp5086
F9.9999999999999995e-08
aF1000
asg12
(tsg1072
g4931
sg1073
I01
sg1074
I00
sg1075
I01
sg1076
I00
sg1077
g4931
sg973
g1185
sg13
g1186
sg1081
(lp5087
g1
(g1083
g3
NtRp5088
(dp5089
g1086
(lp5090
g1193
asg12
(tsg974
(lp5091
(lp5092
g1196
aasg1092
(lp5093
(lp5094
g1199
aasg1096
(lp5095
(lp5096
g5084
aasg1099
(lp5097
I00
asg1101
g1203
sg1103
(lp5098
g1205
asbasg1106
I00
sbag1
(g1067
g3
NtRp5099
(dp5100
g1070
(lp5101
F9.9999999999999995e-08
aF1000
asg12
(tsg1072
g4931
sg1073
I01
sg1074
I00
sg1075
I01
sg1076
I00
sg1077
g4931
sg973
g1185
sg13
g1186
sg1081
(lp5102
g1
(g1083
g3
NtRp5103
(dp5104
g1086
(lp5105
g1193
asg12
(tsg974
(lp5106
(lp5107
g1196
aasg1092
(lp5108
(lp5109
g1199
aasg1096
(lp5110
(lp5111
g5099
aasg1099
(lp5112
I00
asg1101
g1203
sg1103
(lp5113
g1205
asbasg1106
I00
sbag1
(g1067
g3
NtRp5114
(dp5115
g1070
(lp5116
F9.9999999999999995e-08
aF1000
asg12
(tsg1072
g4931
sg1073
I01
sg1074
I00
sg1075
I01
sg1076
I00
sg1077
g4931
sg973
g1185
sg13
g1186
sg1081
(lp5117
g1
(g1083
g3
NtRp5118
(dp5119
g1086
(lp5120
g1193
asg12
(tsg974
(lp5121
(lp5122
g1196
aasg1092
(lp5123
(lp5124
g1199
aasg1096
(lp5125
(lp5126
g5114
aasg1099
(lp5127
I00
asg1101
g1203
sg1103
(lp5128
g1205
asbasg1106
I00
sbag1
(g1067
g3
NtRp5129
(dp5130
g1070
(lp5131
F9.9999999999999995e-08
aF1000
asg12
(tsg1072
g4931
sg1073
I01
sg1074
I00
sg1075
I01
sg1076
I00
sg1077
g4931
sg973
g1185
sg13
g1186
sg1081
(lp5132
g1
(g1083
g3
NtRp5133
(dp5134
g1086
(lp5135
g1193
asg12
(tsg974
(lp5136
(lp5137
g1196
aasg1092
(lp5138
(lp5139
g1199
aasg1096
(lp5140
(lp5141
g5129
aasg1099
(lp5142
I00
asg1101
g1203
sg1103
(lp5143
g1205
asbasg1106
I00
sbag1
(g1067
g3
NtRp5144
(dp5145
g1070
(lp5146
F9.9999999999999995e-08
aF1000
asg12
(tsg1072
g4931
sg1073
I01
sg1074
I00
sg1075
I01
sg1076
I00
sg1077
g4931
sg973
g1185
sg13
g1186
sg1081
(lp5147
g1
(g1083
g3
NtRp5148
(dp5149
g1086
(lp5150
g1193
asg12
(tsg974
(lp5151
(lp5152
g1196
aasg1092
(lp5153
(lp5154
g1199
aasg1096
(lp5155
(lp5156
g5144
aasg1099
(lp5157
I00
asg1101
g1203
sg1103
(lp5158
g1205
asbasg1106
I00
sbag1
(g1067
g3
NtRp5159
(dp5160
g1070
(lp5161
F9.9999999999999995e-08
aF1000
asg12
(tsg1072
g4931
sg1073
I01
sg1074
I00
sg1075
I01
sg1076
I00
sg1077
g4931
sg973
g1314
sg13
g1315
sg1081
(lp5162
g1
(g1083
g3
NtRp5163
(dp5164
g1086
(lp5165
g1322
asg12
(tsg974
(lp5166
(lp5167
g1106
aasg1092
(lp5168
(lp5169
g1327
aasg1096
(lp5170
(lp5171
g5159
aasg1099
(lp5172
I00
asg1101
g1331
sg1103
(lp5173
g1333
asbasg1106
I00
sbag1
(g1067
g3
NtRp5174
(dp5175
g1070
(lp5176
F9.9999999999999995e-08
aF1000
asg12
(tsg1072
g4931
sg1073
I01
sg1074
I00
sg1075
I01
sg1076
I00
sg1077
g4931
sg973
g1314
sg13
g1315
sg1081
(lp5177
g1
(g1083
g3
NtRp5178
(dp5179
g1086
(lp5180
g1322
asg12
(tsg974
(lp5181
(lp5182
g1106
aasg1092
(lp5183
(lp5184
g1327
aasg1096
(lp5185
(lp5186
g5174
aasg1099
(lp5187
I00
asg1101
g1331
sg1103
(lp5188
g1333
asbasg1106
I00
sbag1
(g1067
g3
NtRp5189
(dp5190
g1070
(lp5191
F9.9999999999999995e-08
aF1000
asg12
(tsg1072
g4931
sg1073
I01
sg1074
I00
sg1075
I01
sg1076
I00
sg1077
g4931
sg973
g1314
sg13
g1315
sg1081
(lp5192
g1
(g1083
g3
NtRp5193
(dp5194
g1086
(lp5195
g1322
asg12
(tsg974
(lp5196
(lp5197
g1106
aasg1092
(lp5198
(lp5199
g1327
aasg1096
(lp5200
(lp5201
g5189
aasg1099
(lp5202
I00
asg1101
g1331
sg1103
(lp5203
g1333
asbasg1106
I00
sbastRp5204
g5204
bbag1
(g1035
g3
NtRp5205
g1
(g5
g6
(dp5206
g8
g1
(g9
g3
NtRp5207
(dp5208
g12
(tsg13
g14
sg16
g1035
sg17
g18
sbsg19
S'diffusion/division of LacI'
p5209
sg29
(lp5210
sg31
g4
sg32
I01
sg33
(lp5211
sg1043
S'gamma_L'
p5212
sg1045
(lp5213
(S'LacI'
I1
tp5214
asg1047
g1048
sg88
(lp5215
sg91
(lp5216
sg57
(lp5217
sg71
(lp5218
sg1053
(lp5219
sg1058
g1059
sg1060
F1.0000000000000001e-30
sg64
g1061
sg1062
Nsg68
(lp5220
sg70
Nsg1064
F1
sg127
(lp5221
g5207
asg190
(lp5222
g1
(g1067
g3
NtRp5223
(dp5224
g1070
(lp5225
F9.9999999999999995e-08
aF1000
asg12
(tsg1072
g5205
sg1073
I01
sg1074
I00
sg1075
I01
sg1076
I00
sg1077
g5205
sg973
g1043
sg13
g1078
sg1081
(lp5226
g1
(g1083
g3
NtRp5227
(dp5228
g1086
(lp5229
g1088
asg12
(tsg974
(lp5230
(lp5231
g1091
aasg1092
(lp5232
(lp5233
g1095
aasg1096
(lp5234
(lp5235
g5223
aasg1099
(lp5236
I00
asg1101
g1102
sg1103
(lp5237
g1105
asbasg1106
I00
sbag1
(g1067
g3
NtRp5238
(dp5239
g1070
(lp5240
F9.9999999999999995e-08
aF1000
asg12
(tsg1072
g5205
sg1073
I01
sg1074
I00
sg1075
I01
sg1076
I00
sg1077
g5205
sg973
g1043
sg13
g1078
sg1081
(lp5241
g1
(g1083
g3
NtRp5242
(dp5243
g1086
(lp5244
g1088
asg12
(tsg974
(lp5245
(lp5246
g1091
aasg1092
(lp5247
(lp5248
g1095
aasg1096
(lp5249
(lp5250
g5238
aasg1099
(lp5251
I00
asg1101
g1102
sg1103
(lp5252
g1105
asbasg1106
I00
sbag1
(g1067
g3
NtRp5253
(dp5254
g1070
(lp5255
F9.9999999999999995e-08
aF1000
asg12
(tsg1072
g5205
sg1073
I01
sg1074
I00
sg1075
I01
sg1076
I00
sg1077
g5205
sg973
g1043
sg13
g1078
sg1081
(lp5256
g1
(g1083
g3
NtRp5257
(dp5258
g1086
(lp5259
g1088
asg12
(tsg974
(lp5260
(lp5261
g1091
aasg1092
(lp5262
(lp5263
g1095
aasg1096
(lp5264
(lp5265
g5253
aasg1099
(lp5266
I00
asg1101
g1102
sg1103
(lp5267
g1105
asbasg1106
I00
sbag1
(g1067
g3
NtRp5268
(dp5269
g1070
(lp5270
F9.9999999999999995e-08
aF1000
asg12
(tsg1072
g5205
sg1073
I01
sg1074
I00
sg1075
I01
sg1076
I00
sg1077
g5205
sg973
g1043
sg13
g1078
sg1081
(lp5271
g1
(g1083
g3
NtRp5272
(dp5273
g1086
(lp5274
g1088
asg12
(tsg974
(lp5275
(lp5276
g1091
aasg1092
(lp5277
(lp5278
g1095
aasg1096
(lp5279
(lp5280
g5268
aasg1099
(lp5281
I00
asg1101
g1102
sg1103
(lp5282
g1105
asbasg1106
I00
sbag1
(g1067
g3
NtRp5283
(dp5284
g1070
(lp5285
F9.9999999999999995e-08
aF1000
asg12
(tsg1072
g5205
sg1073
I01
sg1074
I00
sg1075
I01
sg1076
I00
sg1077
g5205
sg973
g1043
sg13
g1078
sg1081
(lp5286
g1
(g1083
g3
NtRp5287
(dp5288
g1086
(lp5289
g1088
asg12
(tsg974
(lp5290
(lp5291
g1091
aasg1092
(lp5292
(lp5293
g1095
aasg1096
(lp5294
(lp5295
g5283
aasg1099
(lp5296
I00
asg1101
g1102
sg1103
(lp5297
g1105
asbasg1106
I00
sbag1
(g1067
g3
NtRp5298
(dp5299
g1070
(lp5300
F9.9999999999999995e-08
aF1000
asg12
(tsg1072
g5205
sg1073
I01
sg1074
I00
sg1075
I01
sg1076
I00
sg1077
g5205
sg973
g1043
sg13
g1078
sg1081
(lp5301
g1
(g1083
g3
NtRp5302
(dp5303
g1086
(lp5304
g1088
asg12
(tsg974
(lp5305
(lp5306
g1091
aasg1092
(lp5307
(lp5308
g1095
aasg1096
(lp5309
(lp5310
g5298
aasg1099
(lp5311
I00
asg1101
g1102
sg1103
(lp5312
g1105
asbasg1106
I00
sbag1
(g1067
g3
NtRp5313
(dp5314
g1070
(lp5315
F9.9999999999999995e-08
aF1000
asg12
(tsg1072
g5205
sg1073
I01
sg1074
I00
sg1075
I01
sg1076
I00
sg1077
g5205
sg973
g1185
sg13
g1186
sg1081
(lp5316
g1
(g1083
g3
NtRp5317
(dp5318
g1086
(lp5319
g1193
asg12
(tsg974
(lp5320
(lp5321
g1196
aasg1092
(lp5322
(lp5323
g1199
aasg1096
(lp5324
(lp5325
g5313
aasg1099
(lp5326
I00
asg1101
g1203
sg1103
(lp5327
g1205
asbasg1106
I00
sbag1
(g1067
g3
NtRp5328
(dp5329
g1070
(lp5330
F9.9999999999999995e-08
aF1000
asg12
(tsg1072
g5205
sg1073
I01
sg1074
I00
sg1075
I01
sg1076
I00
sg1077
g5205
sg973
g1185
sg13
g1186
sg1081
(lp5331
g1
(g1083
g3
NtRp5332
(dp5333
g1086
(lp5334
g1193
asg12
(tsg974
(lp5335
(lp5336
g1196
aasg1092
(lp5337
(lp5338
g1199
aasg1096
(lp5339
(lp5340
g5328
aasg1099
(lp5341
I00
asg1101
g1203
sg1103
(lp5342
g1205
asbasg1106
I00
sbag1
(g1067
g3
NtRp5343
(dp5344
g1070
(lp5345
F9.9999999999999995e-08
aF1000
asg12
(tsg1072
g5205
sg1073
I01
sg1074
I00
sg1075
I01
sg1076
I00
sg1077
g5205
sg973
g1185
sg13
g1186
sg1081
(lp5346
g1
(g1083
g3
NtRp5347
(dp5348
g1086
(lp5349
g1193
asg12
(tsg974
(lp5350
(lp5351
g1196
aasg1092
(lp5352
(lp5353
g1199
aasg1096
(lp5354
(lp5355
g5343
aasg1099
(lp5356
I00
asg1101
g1203
sg1103
(lp5357
g1205
asbasg1106
I00
sbag1
(g1067
g3
NtRp5358
(dp5359
g1070
(lp5360
F9.9999999999999995e-08
aF1000
asg12
(tsg1072
g5205
sg1073
I01
sg1074
I00
sg1075
I01
sg1076
I00
sg1077
g5205
sg973
g1185
sg13
g1186
sg1081
(lp5361
g1
(g1083
g3
NtRp5362
(dp5363
g1086
(lp5364
g1193
asg12
(tsg974
(lp5365
(lp5366
g1196
aasg1092
(lp5367
(lp5368
g1199
aasg1096
(lp5369
(lp5370
g5358
aasg1099
(lp5371
I00
asg1101
g1203
sg1103
(lp5372
g1205
asbasg1106
I00
sbag1
(g1067
g3
NtRp5373
(dp5374
g1070
(lp5375
F9.9999999999999995e-08
aF1000
asg12
(tsg1072
g5205
sg1073
I01
sg1074
I00
sg1075
I01
sg1076
I00
sg1077
g5205
sg973
g1185
sg13
g1186
sg1081
(lp5376
g1
(g1083
g3
NtRp5377
(dp5378
g1086
(lp5379
g1193
asg12
(tsg974
(lp5380
(lp5381
g1196
aasg1092
(lp5382
(lp5383
g1199
aasg1096
(lp5384
(lp5385
g5373
aasg1099
(lp5386
I00
asg1101
g1203
sg1103
(lp5387
g1205
asbasg1106
I00
sbag1
(g1067
g3
NtRp5388
(dp5389
g1070
(lp5390
F9.9999999999999995e-08
aF1000
asg12
(tsg1072
g5205
sg1073
I01
sg1074
I00
sg1075
I01
sg1076
I00
sg1077
g5205
sg973
g1185
sg13
g1186
sg1081
(lp5391
g1
(g1083
g3
NtRp5392
(dp5393
g1086
(lp5394
g1193
asg12
(tsg974
(lp5395
(lp5396
g1196
aasg1092
(lp5397
(lp5398
g1199
aasg1096
(lp5399
(lp5400
g5388
aasg1099
(lp5401
I00
asg1101
g1203
sg1103
(lp5402
g1205
asbasg1106
I00
sbag1
(g1067
g3
NtRp5403
(dp5404
g1070
(lp5405
F9.9999999999999995e-08
aF1000
asg12
(tsg1072
g5205
sg1073
I01
sg1074
I00
sg1075
I01
sg1076
I00
sg1077
g5205
sg973
g1185
sg13
g1186
sg1081
(lp5406
g1
(g1083
g3
NtRp5407
(dp5408
g1086
(lp5409
g1193
asg12
(tsg974
(lp5410
(lp5411
g1196
aasg1092
(lp5412
(lp5413
g1199
aasg1096
(lp5414
(lp5415
g5403
aasg1099
(lp5416
I00
asg1101
g1203
sg1103
(lp5417
g1205
asbasg1106
I00
sbag1
(g1067
g3
NtRp5418
(dp5419
g1070
(lp5420
F9.9999999999999995e-08
aF1000
asg12
(tsg1072
g5205
sg1073
I01
sg1074
I00
sg1075
I01
sg1076
I00
sg1077
g5205
sg973
g1185
sg13
g1186
sg1081
(lp5421
g1
(g1083
g3
NtRp5422
(dp5423
g1086
(lp5424
g1193
asg12
(tsg974
(lp5425
(lp5426
g1196
aasg1092
(lp5427
(lp5428
g1199
aasg1096
(lp5429
(lp5430
g5418
aasg1099
(lp5431
I00
asg1101
g1203
sg1103
(lp5432
g1205
asbasg1106
I00
sbag1
(g1067
g3
NtRp5433
(dp5434
g1070
(lp5435
F9.9999999999999995e-08
aF1000
asg12
(tsg1072
g5205
sg1073
I01
sg1074
I00
sg1075
I01
sg1076
I00
sg1077
g5205
sg973
g1314
sg13
g1315
sg1081
(lp5436
g1
(g1083
g3
NtRp5437
(dp5438
g1086
(lp5439
g1322
asg12
(tsg974
(lp5440
(lp5441
g1106
aasg1092
(lp5442
(lp5443
g1327
aasg1096
(lp5444
(lp5445
g5433
aasg1099
(lp5446
I00
asg1101
g1331
sg1103
(lp5447
g1333
asbasg1106
I00
sbag1
(g1067
g3
NtRp5448
(dp5449
g1070
(lp5450
F9.9999999999999995e-08
aF1000
asg12
(tsg1072
g5205
sg1073
I01
sg1074
I00
sg1075
I01
sg1076
I00
sg1077
g5205
sg973
g1314
sg13
g1315
sg1081
(lp5451
g1
(g1083
g3
NtRp5452
(dp5453
g1086
(lp5454
g1322
asg12
(tsg974
(lp5455
(lp5456
g1106
aasg1092
(lp5457
(lp5458
g1327
aasg1096
(lp5459
(lp5460
g5448
aasg1099
(lp5461
I00
asg1101
g1331
sg1103
(lp5462
g1333
asbasg1106
I00
sbag1
(g1067
g3
NtRp5463
(dp5464
g1070
(lp5465
F9.9999999999999995e-08
aF1000
asg12
(tsg1072
g5205
sg1073
I01
sg1074
I00
sg1075
I01
sg1076
I00
sg1077
g5205
sg973
g1314
sg13
g1315
sg1081
(lp5466
g1
(g1083
g3
NtRp5467
(dp5468
g1086
(lp5469
g1322
asg12
(tsg974
(lp5470
(lp5471
g1106
aasg1092
(lp5472
(lp5473
g1327
aasg1096
(lp5474
(lp5475
g5463
aasg1099
(lp5476
I00
asg1101
g1331
sg1103
(lp5477
g1333
asbasg1106
I00
sbastRp5478
g5478
bbag1
(g1035
g3
NtRp5479
g1
(g5
g6
(dp5480
g8
g1
(g9
g3
NtRp5481
(dp5482
g12
(tsg13
g14
sg16
g1035
sg17
g18
sbsg19
S'diffusion/division of LacI4'
p5483
sg29
(lp5484
sg31
g4
sg32
I01
sg33
(lp5485
sg1043
S'gamma_L4'
p5486
sg1045
(lp5487
(S'LacI4'
I1
tp5488
asg1047
g1048
sg88
(lp5489
sg91
(lp5490
sg57
(lp5491
sg71
(lp5492
sg1053
(lp5493
sg1058
g1059
sg1060
F1.0000000000000001e-30
sg64
g1061
sg1062
Nsg68
(lp5494
sg70
Nsg1064
F1
sg127
(lp5495
g5481
asg190
(lp5496
g1
(g1067
g3
NtRp5497
(dp5498
g1070
(lp5499
F9.9999999999999995e-08
aF1000
asg12
(tsg1072
g5479
sg1073
I01
sg1074
I00
sg1075
I01
sg1076
I00
sg1077
g5479
sg973
g1043
sg13
g1078
sg1081
(lp5500
g1
(g1083
g3
NtRp5501
(dp5502
g1086
(lp5503
g1088
asg12
(tsg974
(lp5504
(lp5505
g1091
aasg1092
(lp5506
(lp5507
g1095
aasg1096
(lp5508
(lp5509
g5497
aasg1099
(lp5510
I00
asg1101
g1102
sg1103
(lp5511
g1105
asbasg1106
I00
sbag1
(g1067
g3
NtRp5512
(dp5513
g1070
(lp5514
F9.9999999999999995e-08
aF1000
asg12
(tsg1072
g5479
sg1073
I01
sg1074
I00
sg1075
I01
sg1076
I00
sg1077
g5479
sg973
g1043
sg13
g1078
sg1081
(lp5515
g1
(g1083
g3
NtRp5516
(dp5517
g1086
(lp5518
g1088
asg12
(tsg974
(lp5519
(lp5520
g1091
aasg1092
(lp5521
(lp5522
g1095
aasg1096
(lp5523
(lp5524
g5512
aasg1099
(lp5525
I00
asg1101
g1102
sg1103
(lp5526
g1105
asbasg1106
I00
sbag1
(g1067
g3
NtRp5527
(dp5528
g1070
(lp5529
F9.9999999999999995e-08
aF1000
asg12
(tsg1072
g5479
sg1073
I01
sg1074
I00
sg1075
I01
sg1076
I00
sg1077
g5479
sg973
g1043
sg13
g1078
sg1081
(lp5530
g1
(g1083
g3
NtRp5531
(dp5532
g1086
(lp5533
g1088
asg12
(tsg974
(lp5534
(lp5535
g1091
aasg1092
(lp5536
(lp5537
g1095
aasg1096
(lp5538
(lp5539
g5527
aasg1099
(lp5540
I00
asg1101
g1102
sg1103
(lp5541
g1105
asbasg1106
I00
sbag1
(g1067
g3
NtRp5542
(dp5543
g1070
(lp5544
F9.9999999999999995e-08
aF1000
asg12
(tsg1072
g5479
sg1073
I01
sg1074
I00
sg1075
I01
sg1076
I00
sg1077
g5479
sg973
g1043
sg13
g1078
sg1081
(lp5545
g1
(g1083
g3
NtRp5546
(dp5547
g1086
(lp5548
g1088
asg12
(tsg974
(lp5549
(lp5550
g1091
aasg1092
(lp5551
(lp5552
g1095
aasg1096
(lp5553
(lp5554
g5542
aasg1099
(lp5555
I00
asg1101
g1102
sg1103
(lp5556
g1105
asbasg1106
I00
sbag1
(g1067
g3
NtRp5557
(dp5558
g1070
(lp5559
F9.9999999999999995e-08
aF1000
asg12
(tsg1072
g5479
sg1073
I01
sg1074
I00
sg1075
I01
sg1076
I00
sg1077
g5479
sg973
g1043
sg13
g1078
sg1081
(lp5560
g1
(g1083
g3
NtRp5561
(dp5562
g1086
(lp5563
g1088
asg12
(tsg974
(lp5564
(lp5565
g1091
aasg1092
(lp5566
(lp5567
g1095
aasg1096
(lp5568
(lp5569
g5557
aasg1099
(lp5570
I00
asg1101
g1102
sg1103
(lp5571
g1105
asbasg1106
I00
sbag1
(g1067
g3
NtRp5572
(dp5573
g1070
(lp5574
F9.9999999999999995e-08
aF1000
asg12
(tsg1072
g5479
sg1073
I01
sg1074
I00
sg1075
I01
sg1076
I00
sg1077
g5479
sg973
g1043
sg13
g1078
sg1081
(lp5575
g1
(g1083
g3
NtRp5576
(dp5577
g1086
(lp5578
g1088
asg12
(tsg974
(lp5579
(lp5580
g1091
aasg1092
(lp5581
(lp5582
g1095
aasg1096
(lp5583
(lp5584
g5572
aasg1099
(lp5585
I00
asg1101
g1102
sg1103
(lp5586
g1105
asbasg1106
I00
sbag1
(g1067
g3
NtRp5587
(dp5588
g1070
(lp5589
F9.9999999999999995e-08
aF1000
asg12
(tsg1072
g5479
sg1073
I01
sg1074
I00
sg1075
I01
sg1076
I00
sg1077
g5479
sg973
g1185
sg13
g1186
sg1081
(lp5590
g1
(g1083
g3
NtRp5591
(dp5592
g1086
(lp5593
g1193
asg12
(tsg974
(lp5594
(lp5595
g1196
aasg1092
(lp5596
(lp5597
g1199
aasg1096
(lp5598
(lp5599
g5587
aasg1099
(lp5600
I00
asg1101
g1203
sg1103
(lp5601
g1205
asbasg1106
I00
sbag1
(g1067
g3
NtRp5602
(dp5603
g1070
(lp5604
F9.9999999999999995e-08
aF1000
asg12
(tsg1072
g5479
sg1073
I01
sg1074
I00
sg1075
I01
sg1076
I00
sg1077
g5479
sg973
g1185
sg13
g1186
sg1081
(lp5605
g1
(g1083
g3
NtRp5606
(dp5607
g1086
(lp5608
g1193
asg12
(tsg974
(lp5609
(lp5610
g1196
aasg1092
(lp5611
(lp5612
g1199
aasg1096
(lp5613
(lp5614
g5602
aasg1099
(lp5615
I00
asg1101
g1203
sg1103
(lp5616
g1205
asbasg1106
I00
sbag1
(g1067
g3
NtRp5617
(dp5618
g1070
(lp5619
F9.9999999999999995e-08
aF1000
asg12
(tsg1072
g5479
sg1073
I01
sg1074
I00
sg1075
I01
sg1076
I00
sg1077
g5479
sg973
g1185
sg13
g1186
sg1081
(lp5620
g1
(g1083
g3
NtRp5621
(dp5622
g1086
(lp5623
g1193
asg12
(tsg974
(lp5624
(lp5625
g1196
aasg1092
(lp5626
(lp5627
g1199
aasg1096
(lp5628
(lp5629
g5617
aasg1099
(lp5630
I00
asg1101
g1203
sg1103
(lp5631
g1205
asbasg1106
I00
sbag1
(g1067
g3
NtRp5632
(dp5633
g1070
(lp5634
F9.9999999999999995e-08
aF1000
asg12
(tsg1072
g5479
sg1073
I01
sg1074
I00
sg1075
I01
sg1076
I00
sg1077
g5479
sg973
g1185
sg13
g1186
sg1081
(lp5635
g1
(g1083
g3
NtRp5636
(dp5637
g1086
(lp5638
g1193
asg12
(tsg974
(lp5639
(lp5640
g1196
aasg1092
(lp5641
(lp5642
g1199
aasg1096
(lp5643
(lp5644
g5632
aasg1099
(lp5645
I00
asg1101
g1203
sg1103
(lp5646
g1205
asbasg1106
I00
sbag1
(g1067
g3
NtRp5647
(dp5648
g1070
(lp5649
F9.9999999999999995e-08
aF1000
asg12
(tsg1072
g5479
sg1073
I01
sg1074
I00
sg1075
I01
sg1076
I00
sg1077
g5479
sg973
g1185
sg13
g1186
sg1081
(lp5650
g1
(g1083
g3
NtRp5651
(dp5652
g1086
(lp5653
g1193
asg12
(tsg974
(lp5654
(lp5655
g1196
aasg1092
(lp5656
(lp5657
g1199
aasg1096
(lp5658
(lp5659
g5647
aasg1099
(lp5660
I00
asg1101
g1203
sg1103
(lp5661
g1205
asbasg1106
I00
sbag1
(g1067
g3
NtRp5662
(dp5663
g1070
(lp5664
F9.9999999999999995e-08
aF1000
asg12
(tsg1072
g5479
sg1073
I01
sg1074
I00
sg1075
I01
sg1076
I00
sg1077
g5479
sg973
g1185
sg13
g1186
sg1081
(lp5665
g1
(g1083
g3
NtRp5666
(dp5667
g1086
(lp5668
g1193
asg12
(tsg974
(lp5669
(lp5670
g1196
aasg1092
(lp5671
(lp5672
g1199
aasg1096
(lp5673
(lp5674
g5662
aasg1099
(lp5675
I00
asg1101
g1203
sg1103
(lp5676
g1205
asbasg1106
I00
sbag1
(g1067
g3
NtRp5677
(dp5678
g1070
(lp5679
F9.9999999999999995e-08
aF1000
asg12
(tsg1072
g5479
sg1073
I01
sg1074
I00
sg1075
I01
sg1076
I00
sg1077
g5479
sg973
g1185
sg13
g1186
sg1081
(lp5680
g1
(g1083
g3
NtRp5681
(dp5682
g1086
(lp5683
g1193
asg12
(tsg974
(lp5684
(lp5685
g1196
aasg1092
(lp5686
(lp5687
g1199
aasg1096
(lp5688
(lp5689
g5677
aasg1099
(lp5690
I00
asg1101
g1203
sg1103
(lp5691
g1205
asbasg1106
I00
sbag1
(g1067
g3
NtRp5692
(dp5693
g1070
(lp5694
F9.9999999999999995e-08
aF1000
asg12
(tsg1072
g5479
sg1073
I01
sg1074
I00
sg1075
I01
sg1076
I00
sg1077
g5479
sg973
g1185
sg13
g1186
sg1081
(lp5695
g1
(g1083
g3
NtRp5696
(dp5697
g1086
(lp5698
g1193
asg12
(tsg974
(lp5699
(lp5700
g1196
aasg1092
(lp5701
(lp5702
g1199
aasg1096
(lp5703
(lp5704
g5692
aasg1099
(lp5705
I00
asg1101
g1203
sg1103
(lp5706
g1205
asbasg1106
I00
sbag1
(g1067
g3
NtRp5707
(dp5708
g1070
(lp5709
F9.9999999999999995e-08
aF1000
asg12
(tsg1072
g5479
sg1073
I01
sg1074
I00
sg1075
I01
sg1076
I00
sg1077
g5479
sg973
g1314
sg13
g1315
sg1081
(lp5710
g1
(g1083
g3
NtRp5711
(dp5712
g1086
(lp5713
g1322
asg12
(tsg974
(lp5714
(lp5715
g1106
aasg1092
(lp5716
(lp5717
g1327
aasg1096
(lp5718
(lp5719
g5707
aasg1099
(lp5720
I00
asg1101
g1331
sg1103
(lp5721
g1333
asbasg1106
I00
sbag1
(g1067
g3
NtRp5722
(dp5723
g1070
(lp5724
F9.9999999999999995e-08
aF1000
asg12
(tsg1072
g5479
sg1073
I01
sg1074
I00
sg1075
I01
sg1076
I00
sg1077
g5479
sg973
g1314
sg13
g1315
sg1081
(lp5725
g1
(g1083
g3
NtRp5726
(dp5727
g1086
(lp5728
g1322
asg12
(tsg974
(lp5729
(lp5730
g1106
aasg1092
(lp5731
(lp5732
g1327
aasg1096
(lp5733
(lp5734
g5722
aasg1099
(lp5735
I00
asg1101
g1331
sg1103
(lp5736
g1333
asbasg1106
I00
sbag1
(g1067
g3
NtRp5737
(dp5738
g1070
(lp5739
F9.9999999999999995e-08
aF1000
asg12
(tsg1072
g5479
sg1073
I01
sg1074
I00
sg1075
I01
sg1076
I00
sg1077
g5479
sg973
g1314
sg13
g1315
sg1081
(lp5740
g1
(g1083
g3
NtRp5741
(dp5742
g1086
(lp5743
g1322
asg12
(tsg974
(lp5744
(lp5745
g1106
aasg1092
(lp5746
(lp5747
g1327
aasg1096
(lp5748
(lp5749
g5737
aasg1099
(lp5750
I00
asg1101
g1331
sg1103
(lp5751
g1333
asbasg1106
I00
sbastRp5752
g5752
bbag1
(g1035
g3
NtRp5753
g1
(g5
g6
(dp5754
g8
g1
(g9
g3
NtRp5755
(dp5756
g12
(tsg13
g14
sg16
g1035
sg17
g18
sbsg19
S'diffusion/division of AraC'
p5757
sg29
(lp5758
sg31
g4
sg32
I01
sg33
(lp5759
sg1043
S'gamma_A'
p5760
sg1045
(lp5761
(S'AraC'
I1
tp5762
asg1047
g1048
sg88
(lp5763
sg91
(lp5764
sg57
(lp5765
sg71
(lp5766
sg1053
(lp5767
sg1058
g1059
sg1060
F1.0000000000000001e-30
sg64
g1061
sg1062
Nsg68
(lp5768
sg70
Nsg1064
F1
sg127
(lp5769
g5755
asg190
(lp5770
g1
(g1067
g3
NtRp5771
(dp5772
g1070
(lp5773
F9.9999999999999995e-08
aF1000
asg12
(tsg1072
g5753
sg1073
I01
sg1074
I00
sg1075
I01
sg1076
I00
sg1077
g5753
sg973
g1043
sg13
g1078
sg1081
(lp5774
g1
(g1083
g3
NtRp5775
(dp5776
g1086
(lp5777
g1088
asg12
(tsg974
(lp5778
(lp5779
g1091
aasg1092
(lp5780
(lp5781
g1095
aasg1096
(lp5782
(lp5783
g5771
aasg1099
(lp5784
I00
asg1101
g1102
sg1103
(lp5785
g1105
asbasg1106
I00
sbag1
(g1067
g3
NtRp5786
(dp5787
g1070
(lp5788
F9.9999999999999995e-08
aF1000
asg12
(tsg1072
g5753
sg1073
I01
sg1074
I00
sg1075
I01
sg1076
I00
sg1077
g5753
sg973
g1043
sg13
g1078
sg1081
(lp5789
g1
(g1083
g3
NtRp5790
(dp5791
g1086
(lp5792
g1088
asg12
(tsg974
(lp5793
(lp5794
g1091
aasg1092
(lp5795
(lp5796
g1095
aasg1096
(lp5797
(lp5798
g5786
aasg1099
(lp5799
I00
asg1101
g1102
sg1103
(lp5800
g1105
asbasg1106
I00
sbag1
(g1067
g3
NtRp5801
(dp5802
g1070
(lp5803
F9.9999999999999995e-08
aF1000
asg12
(tsg1072
g5753
sg1073
I01
sg1074
I00
sg1075
I01
sg1076
I00
sg1077
g5753
sg973
g1043
sg13
g1078
sg1081
(lp5804
g1
(g1083
g3
NtRp5805
(dp5806
g1086
(lp5807
g1088
asg12
(tsg974
(lp5808
(lp5809
g1091
aasg1092
(lp5810
(lp5811
g1095
aasg1096
(lp5812
(lp5813
g5801
aasg1099
(lp5814
I00
asg1101
g1102
sg1103
(lp5815
g1105
asbasg1106
I00
sbag1
(g1067
g3
NtRp5816
(dp5817
g1070
(lp5818
F9.9999999999999995e-08
aF1000
asg12
(tsg1072
g5753
sg1073
I01
sg1074
I00
sg1075
I01
sg1076
I00
sg1077
g5753
sg973
g1043
sg13
g1078
sg1081
(lp5819
g1
(g1083
g3
NtRp5820
(dp5821
g1086
(lp5822
g1088
asg12
(tsg974
(lp5823
(lp5824
g1091
aasg1092
(lp5825
(lp5826
g1095
aasg1096
(lp5827
(lp5828
g5816
aasg1099
(lp5829
I00
asg1101
g1102
sg1103
(lp5830
g1105
asbasg1106
I00
sbag1
(g1067
g3
NtRp5831
(dp5832
g1070
(lp5833
F9.9999999999999995e-08
aF1000
asg12
(tsg1072
g5753
sg1073
I01
sg1074
I00
sg1075
I01
sg1076
I00
sg1077
g5753
sg973
g1043
sg13
g1078
sg1081
(lp5834
g1
(g1083
g3
NtRp5835
(dp5836
g1086
(lp5837
g1088
asg12
(tsg974
(lp5838
(lp5839
g1091
aasg1092
(lp5840
(lp5841
g1095
aasg1096
(lp5842
(lp5843
g5831
aasg1099
(lp5844
I00
asg1101
g1102
sg1103
(lp5845
g1105
asbasg1106
I00
sbag1
(g1067
g3
NtRp5846
(dp5847
g1070
(lp5848
F9.9999999999999995e-08
aF1000
asg12
(tsg1072
g5753
sg1073
I01
sg1074
I00
sg1075
I01
sg1076
I00
sg1077
g5753
sg973
g1043
sg13
g1078
sg1081
(lp5849
g1
(g1083
g3
NtRp5850
(dp5851
g1086
(lp5852
g1088
asg12
(tsg974
(lp5853
(lp5854
g1091
aasg1092
(lp5855
(lp5856
g1095
aasg1096
(lp5857
(lp5858
g5846
aasg1099
(lp5859
I00
asg1101
g1102
sg1103
(lp5860
g1105
asbasg1106
I00
sbag1
(g1067
g3
NtRp5861
(dp5862
g1070
(lp5863
F9.9999999999999995e-08
aF1000
asg12
(tsg1072
g5753
sg1073
I01
sg1074
I00
sg1075
I01
sg1076
I00
sg1077
g5753
sg973
g1185
sg13
g1186
sg1081
(lp5864
g1
(g1083
g3
NtRp5865
(dp5866
g1086
(lp5867
g1193
asg12
(tsg974
(lp5868
(lp5869
g1196
aasg1092
(lp5870
(lp5871
g1199
aasg1096
(lp5872
(lp5873
g5861
aasg1099
(lp5874
I00
asg1101
g1203
sg1103
(lp5875
g1205
asbasg1106
I00
sbag1
(g1067
g3
NtRp5876
(dp5877
g1070
(lp5878
F9.9999999999999995e-08
aF1000
asg12
(tsg1072
g5753
sg1073
I01
sg1074
I00
sg1075
I01
sg1076
I00
sg1077
g5753
sg973
g1185
sg13
g1186
sg1081
(lp5879
g1
(g1083
g3
NtRp5880
(dp5881
g1086
(lp5882
g1193
asg12
(tsg974
(lp5883
(lp5884
g1196
aasg1092
(lp5885
(lp5886
g1199
aasg1096
(lp5887
(lp5888
g5876
aasg1099
(lp5889
I00
asg1101
g1203
sg1103
(lp5890
g1205
asbasg1106
I00
sbag1
(g1067
g3
NtRp5891
(dp5892
g1070
(lp5893
F9.9999999999999995e-08
aF1000
asg12
(tsg1072
g5753
sg1073
I01
sg1074
I00
sg1075
I01
sg1076
I00
sg1077
g5753
sg973
g1185
sg13
g1186
sg1081
(lp5894
g1
(g1083
g3
NtRp5895
(dp5896
g1086
(lp5897
g1193
asg12
(tsg974
(lp5898
(lp5899
g1196
aasg1092
(lp5900
(lp5901
g1199
aasg1096
(lp5902
(lp5903
g5891
aasg1099
(lp5904
I00
asg1101
g1203
sg1103
(lp5905
g1205
asbasg1106
I00
sbag1
(g1067
g3
NtRp5906
(dp5907
g1070
(lp5908
F9.9999999999999995e-08
aF1000
asg12
(tsg1072
g5753
sg1073
I01
sg1074
I00
sg1075
I01
sg1076
I00
sg1077
g5753
sg973
g1185
sg13
g1186
sg1081
(lp5909
g1
(g1083
g3
NtRp5910
(dp5911
g1086
(lp5912
g1193
asg12
(tsg974
(lp5913
(lp5914
g1196
aasg1092
(lp5915
(lp5916
g1199
aasg1096
(lp5917
(lp5918
g5906
aasg1099
(lp5919
I00
asg1101
g1203
sg1103
(lp5920
g1205
asbasg1106
I00
sbag1
(g1067
g3
NtRp5921
(dp5922
g1070
(lp5923
F9.9999999999999995e-08
aF1000
asg12
(tsg1072
g5753
sg1073
I01
sg1074
I00
sg1075
I01
sg1076
I00
sg1077
g5753
sg973
g1185
sg13
g1186
sg1081
(lp5924
g1
(g1083
g3
NtRp5925
(dp5926
g1086
(lp5927
g1193
asg12
(tsg974
(lp5928
(lp5929
g1196
aasg1092
(lp5930
(lp5931
g1199
aasg1096
(lp5932
(lp5933
g5921
aasg1099
(lp5934
I00
asg1101
g1203
sg1103
(lp5935
g1205
asbasg1106
I00
sbag1
(g1067
g3
NtRp5936
(dp5937
g1070
(lp5938
F9.9999999999999995e-08
aF1000
asg12
(tsg1072
g5753
sg1073
I01
sg1074
I00
sg1075
I01
sg1076
I00
sg1077
g5753
sg973
g1185
sg13
g1186
sg1081
(lp5939
g1
(g1083
g3
NtRp5940
(dp5941
g1086
(lp5942
g1193
asg12
(tsg974
(lp5943
(lp5944
g1196
aasg1092
(lp5945
(lp5946
g1199
aasg1096
(lp5947
(lp5948
g5936
aasg1099
(lp5949
I00
asg1101
g1203
sg1103
(lp5950
g1205
asbasg1106
I00
sbag1
(g1067
g3
NtRp5951
(dp5952
g1070
(lp5953
F9.9999999999999995e-08
aF1000
asg12
(tsg1072
g5753
sg1073
I01
sg1074
I00
sg1075
I01
sg1076
I00
sg1077
g5753
sg973
g1185
sg13
g1186
sg1081
(lp5954
g1
(g1083
g3
NtRp5955
(dp5956
g1086
(lp5957
g1193
asg12
(tsg974
(lp5958
(lp5959
g1196
aasg1092
(lp5960
(lp5961
g1199
aasg1096
(lp5962
(lp5963
g5951
aasg1099
(lp5964
I00
asg1101
g1203
sg1103
(lp5965
g1205
asbasg1106
I00
sbag1
(g1067
g3
NtRp5966
(dp5967
g1070
(lp5968
F9.9999999999999995e-08
aF1000
asg12
(tsg1072
g5753
sg1073
I01
sg1074
I00
sg1075
I01
sg1076
I00
sg1077
g5753
sg973
g1185
sg13
g1186
sg1081
(lp5969
g1
(g1083
g3
NtRp5970
(dp5971
g1086
(lp5972
g1193
asg12
(tsg974
(lp5973
(lp5974
g1196
aasg1092
(lp5975
(lp5976
g1199
aasg1096
(lp5977
(lp5978
g5966
aasg1099
(lp5979
I00
asg1101
g1203
sg1103
(lp5980
g1205
asbasg1106
I00
sbag1
(g1067
g3
NtRp5981
(dp5982
g1070
(lp5983
F9.9999999999999995e-08
aF1000
asg12
(tsg1072
g5753
sg1073
I01
sg1074
I00
sg1075
I01
sg1076
I00
sg1077
g5753
sg973
g1314
sg13
g1315
sg1081
(lp5984
g1
(g1083
g3
NtRp5985
(dp5986
g1086
(lp5987
g1322
asg12
(tsg974
(lp5988
(lp5989
g1106
aasg1092
(lp5990
(lp5991
g1327
aasg1096
(lp5992
(lp5993
g5981
aasg1099
(lp5994
I00
asg1101
g1331
sg1103
(lp5995
g1333
asbasg1106
I00
sbag1
(g1067
g3
NtRp5996
(dp5997
g1070
(lp5998
F9.9999999999999995e-08
aF1000
asg12
(tsg1072
g5753
sg1073
I01
sg1074
I00
sg1075
I01
sg1076
I00
sg1077
g5753
sg973
g1314
sg13
g1315
sg1081
(lp5999
g1
(g1083
g3
NtRp6000
(dp6001
g1086
(lp6002
g1322
asg12
(tsg974
(lp6003
(lp6004
g1106
aasg1092
(lp6005
(lp6006
g1327
aasg1096
(lp6007
(lp6008
g5996
aasg1099
(lp6009
I00
asg1101
g1331
sg1103
(lp6010
g1333
asbasg1106
I00
sbag1
(g1067
g3
NtRp6011
(dp6012
g1070
(lp6013
F9.9999999999999995e-08
aF1000
asg12
(tsg1072
g5753
sg1073
I01
sg1074
I00
sg1075
I01
sg1076
I00
sg1077
g5753
sg973
g1314
sg13
g1315
sg1081
(lp6014
g1
(g1083
g3
NtRp6015
(dp6016
g1086
(lp6017
g1322
asg12
(tsg974
(lp6018
(lp6019
g1106
aasg1092
(lp6020
(lp6021
g1327
aasg1096
(lp6022
(lp6023
g6011
aasg1099
(lp6024
I00
asg1101
g1331
sg1103
(lp6025
g1333
asbasg1106
I00
sbastRp6026
g6026
bbag1
(g1035
g3
NtRp6027
g1
(g5
g6
(dp6028
g8
g1
(g9
g3
NtRp6029
(dp6030
g12
(tsg13
g14
sg16
g1035
sg17
g18
sbsg19
S'diffusion/division of AraC2'
p6031
sg29
(lp6032
sg31
g4
sg32
I01
sg33
(lp6033
sg1043
S'gamma_A2'
p6034
sg1045
(lp6035
(S'AraC2'
I1
tp6036
asg1047
g1048
sg88
(lp6037
sg91
(lp6038
sg57
(lp6039
sg71
(lp6040
sg1053
(lp6041
sg1058
g1059
sg1060
F1.0000000000000001e-30
sg64
g1061
sg1062
Nsg68
(lp6042
sg70
Nsg1064
F1
sg127
(lp6043
g6029
asg190
(lp6044
g1
(g1067
g3
NtRp6045
(dp6046
g1070
(lp6047
F9.9999999999999995e-08
aF1000
asg12
(tsg1072
g6027
sg1073
I01
sg1074
I00
sg1075
I01
sg1076
I00
sg1077
g6027
sg973
g1043
sg13
g1078
sg1081
(lp6048
g1
(g1083
g3
NtRp6049
(dp6050
g1086
(lp6051
g1088
asg12
(tsg974
(lp6052
(lp6053
g1091
aasg1092
(lp6054
(lp6055
g1095
aasg1096
(lp6056
(lp6057
g6045
aasg1099
(lp6058
I00
asg1101
g1102
sg1103
(lp6059
g1105
asbasg1106
I00
sbag1
(g1067
g3
NtRp6060
(dp6061
g1070
(lp6062
F9.9999999999999995e-08
aF1000
asg12
(tsg1072
g6027
sg1073
I01
sg1074
I00
sg1075
I01
sg1076
I00
sg1077
g6027
sg973
g1043
sg13
g1078
sg1081
(lp6063
g1
(g1083
g3
NtRp6064
(dp6065
g1086
(lp6066
g1088
asg12
(tsg974
(lp6067
(lp6068
g1091
aasg1092
(lp6069
(lp6070
g1095
aasg1096
(lp6071
(lp6072
g6060
aasg1099
(lp6073
I00
asg1101
g1102
sg1103
(lp6074
g1105
asbasg1106
I00
sbag1
(g1067
g3
NtRp6075
(dp6076
g1070
(lp6077
F9.9999999999999995e-08
aF1000
asg12
(tsg1072
g6027
sg1073
I01
sg1074
I00
sg1075
I01
sg1076
I00
sg1077
g6027
sg973
g1043
sg13
g1078
sg1081
(lp6078
g1
(g1083
g3
NtRp6079
(dp6080
g1086
(lp6081
g1088
asg12
(tsg974
(lp6082
(lp6083
g1091
aasg1092
(lp6084
(lp6085
g1095
aasg1096
(lp6086
(lp6087
g6075
aasg1099
(lp6088
I00
asg1101
g1102
sg1103
(lp6089
g1105
asbasg1106
I00
sbag1
(g1067
g3
NtRp6090
(dp6091
g1070
(lp6092
F9.9999999999999995e-08
aF1000
asg12
(tsg1072
g6027
sg1073
I01
sg1074
I00
sg1075
I01
sg1076
I00
sg1077
g6027
sg973
g1043
sg13
g1078
sg1081
(lp6093
g1
(g1083
g3
NtRp6094
(dp6095
g1086
(lp6096
g1088
asg12
(tsg974
(lp6097
(lp6098
g1091
aasg1092
(lp6099
(lp6100
g1095
aasg1096
(lp6101
(lp6102
g6090
aasg1099
(lp6103
I00
asg1101
g1102
sg1103
(lp6104
g1105
asbasg1106
I00
sbag1
(g1067
g3
NtRp6105
(dp6106
g1070
(lp6107
F9.9999999999999995e-08
aF1000
asg12
(tsg1072
g6027
sg1073
I01
sg1074
I00
sg1075
I01
sg1076
I00
sg1077
g6027
sg973
g1043
sg13
g1078
sg1081
(lp6108
g1
(g1083
g3
NtRp6109
(dp6110
g1086
(lp6111
g1088
asg12
(tsg974
(lp6112
(lp6113
g1091
aasg1092
(lp6114
(lp6115
g1095
aasg1096
(lp6116
(lp6117
g6105
aasg1099
(lp6118
I00
asg1101
g1102
sg1103
(lp6119
g1105
asbasg1106
I00
sbag1
(g1067
g3
NtRp6120
(dp6121
g1070
(lp6122
F9.9999999999999995e-08
aF1000
asg12
(tsg1072
g6027
sg1073
I01
sg1074
I00
sg1075
I01
sg1076
I00
sg1077
g6027
sg973
g1043
sg13
g1078
sg1081
(lp6123
g1
(g1083
g3
NtRp6124
(dp6125
g1086
(lp6126
g1088
asg12
(tsg974
(lp6127
(lp6128
g1091
aasg1092
(lp6129
(lp6130
g1095
aasg1096
(lp6131
(lp6132
g6120
aasg1099
(lp6133
I00
asg1101
g1102
sg1103
(lp6134
g1105
asbasg1106
I00
sbag1
(g1067
g3
NtRp6135
(dp6136
g1070
(lp6137
F9.9999999999999995e-08
aF1000
asg12
(tsg1072
g6027
sg1073
I01
sg1074
I00
sg1075
I01
sg1076
I00
sg1077
g6027
sg973
g1185
sg13
g1186
sg1081
(lp6138
g1
(g1083
g3
NtRp6139
(dp6140
g1086
(lp6141
g1193
asg12
(tsg974
(lp6142
(lp6143
g1196
aasg1092
(lp6144
(lp6145
g1199
aasg1096
(lp6146
(lp6147
g6135
aasg1099
(lp6148
I00
asg1101
g1203
sg1103
(lp6149
g1205
asbasg1106
I00
sbag1
(g1067
g3
NtRp6150
(dp6151
g1070
(lp6152
F9.9999999999999995e-08
aF1000
asg12
(tsg1072
g6027
sg1073
I01
sg1074
I00
sg1075
I01
sg1076
I00
sg1077
g6027
sg973
g1185
sg13
g1186
sg1081
(lp6153
g1
(g1083
g3
NtRp6154
(dp6155
g1086
(lp6156
g1193
asg12
(tsg974
(lp6157
(lp6158
g1196
aasg1092
(lp6159
(lp6160
g1199
aasg1096
(lp6161
(lp6162
g6150
aasg1099
(lp6163
I00
asg1101
g1203
sg1103
(lp6164
g1205
asbasg1106
I00
sbag1
(g1067
g3
NtRp6165
(dp6166
g1070
(lp6167
F9.9999999999999995e-08
aF1000
asg12
(tsg1072
g6027
sg1073
I01
sg1074
I00
sg1075
I01
sg1076
I00
sg1077
g6027
sg973
g1185
sg13
g1186
sg1081
(lp6168
g1
(g1083
g3
NtRp6169
(dp6170
g1086
(lp6171
g1193
asg12
(tsg974
(lp6172
(lp6173
g1196
aasg1092
(lp6174
(lp6175
g1199
aasg1096
(lp6176
(lp6177
g6165
aasg1099
(lp6178
I00
asg1101
g1203
sg1103
(lp6179
g1205
asbasg1106
I00
sbag1
(g1067
g3
NtRp6180
(dp6181
g1070
(lp6182
F9.9999999999999995e-08
aF1000
asg12
(tsg1072
g6027
sg1073
I01
sg1074
I00
sg1075
I01
sg1076
I00
sg1077
g6027
sg973
g1185
sg13
g1186
sg1081
(lp6183
g1
(g1083
g3
NtRp6184
(dp6185
g1086
(lp6186
g1193
asg12
(tsg974
(lp6187
(lp6188
g1196
aasg1092
(lp6189
(lp6190
g1199
aasg1096
(lp6191
(lp6192
g6180
aasg1099
(lp6193
I00
asg1101
g1203
sg1103
(lp6194
g1205
asbasg1106
I00
sbag1
(g1067
g3
NtRp6195
(dp6196
g1070
(lp6197
F9.9999999999999995e-08
aF1000
asg12
(tsg1072
g6027
sg1073
I01
sg1074
I00
sg1075
I01
sg1076
I00
sg1077
g6027
sg973
g1185
sg13
g1186
sg1081
(lp6198
g1
(g1083
g3
NtRp6199
(dp6200
g1086
(lp6201
g1193
asg12
(tsg974
(lp6202
(lp6203
g1196
aasg1092
(lp6204
(lp6205
g1199
aasg1096
(lp6206
(lp6207
g6195
aasg1099
(lp6208
I00
asg1101
g1203
sg1103
(lp6209
g1205
asbasg1106
I00
sbag1
(g1067
g3
NtRp6210
(dp6211
g1070
(lp6212
F9.9999999999999995e-08
aF1000
asg12
(tsg1072
g6027
sg1073
I01
sg1074
I00
sg1075
I01
sg1076
I00
sg1077
g6027
sg973
g1185
sg13
g1186
sg1081
(lp6213
g1
(g1083
g3
NtRp6214
(dp6215
g1086
(lp6216
g1193
asg12
(tsg974
(lp6217
(lp6218
g1196
aasg1092
(lp6219
(lp6220
g1199
aasg1096
(lp6221
(lp6222
g6210
aasg1099
(lp6223
I00
asg1101
g1203
sg1103
(lp6224
g1205
asbasg1106
I00
sbag1
(g1067
g3
NtRp6225
(dp6226
g1070
(lp6227
F9.9999999999999995e-08
aF1000
asg12
(tsg1072
g6027
sg1073
I01
sg1074
I00
sg1075
I01
sg1076
I00
sg1077
g6027
sg973
g1185
sg13
g1186
sg1081
(lp6228
g1
(g1083
g3
NtRp6229
(dp6230
g1086
(lp6231
g1193
asg12
(tsg974
(lp6232
(lp6233
g1196
aasg1092
(lp6234
(lp6235
g1199
aasg1096
(lp6236
(lp6237
g6225
aasg1099
(lp6238
I00
asg1101
g1203
sg1103
(lp6239
g1205
asbasg1106
I00
sbag1
(g1067
g3
NtRp6240
(dp6241
g1070
(lp6242
F9.9999999999999995e-08
aF1000
asg12
(tsg1072
g6027
sg1073
I01
sg1074
I00
sg1075
I01
sg1076
I00
sg1077
g6027
sg973
g1185
sg13
g1186
sg1081
(lp6243
g1
(g1083
g3
NtRp6244
(dp6245
g1086
(lp6246
g1193
asg12
(tsg974
(lp6247
(lp6248
g1196
aasg1092
(lp6249
(lp6250
g1199
aasg1096
(lp6251
(lp6252
g6240
aasg1099
(lp6253
I00
asg1101
g1203
sg1103
(lp6254
g1205
asbasg1106
I00
sbag1
(g1067
g3
NtRp6255
(dp6256
g1070
(lp6257
F9.9999999999999995e-08
aF1000
asg12
(tsg1072
g6027
sg1073
I01
sg1074
I00
sg1075
I01
sg1076
I00
sg1077
g6027
sg973
g1314
sg13
g1315
sg1081
(lp6258
g1
(g1083
g3
NtRp6259
(dp6260
g1086
(lp6261
g1322
asg12
(tsg974
(lp6262
(lp6263
g1106
aasg1092
(lp6264
(lp6265
g1327
aasg1096
(lp6266
(lp6267
g6255
aasg1099
(lp6268
I00
asg1101
g1331
sg1103
(lp6269
g1333
asbasg1106
I00
sbag1
(g1067
g3
NtRp6270
(dp6271
g1070
(lp6272
F9.9999999999999995e-08
aF1000
asg12
(tsg1072
g6027
sg1073
I01
sg1074
I00
sg1075
I01
sg1076
I00
sg1077
g6027
sg973
g1314
sg13
g1315
sg1081
(lp6273
g1
(g1083
g3
NtRp6274
(dp6275
g1086
(lp6276
g1322
asg12
(tsg974
(lp6277
(lp6278
g1106
aasg1092
(lp6279
(lp6280
g1327
aasg1096
(lp6281
(lp6282
g6270
aasg1099
(lp6283
I00
asg1101
g1331
sg1103
(lp6284
g1333
asbasg1106
I00
sbag1
(g1067
g3
NtRp6285
(dp6286
g1070
(lp6287
F9.9999999999999995e-08
aF1000
asg12
(tsg1072
g6027
sg1073
I01
sg1074
I00
sg1075
I01
sg1076
I00
sg1077
g6027
sg973
g1314
sg13
g1315
sg1081
(lp6288
g1
(g1083
g3
NtRp6289
(dp6290
g1086
(lp6291
g1322
asg12
(tsg974
(lp6292
(lp6293
g1106
aasg1092
(lp6294
(lp6295
g1327
aasg1096
(lp6296
(lp6297
g6285
aasg1099
(lp6298
I00
asg1101
g1331
sg1103
(lp6299
g1333
asbasg1106
I00
sbastRp6300
g6300
bbasS'functions'
p6301
(dp6302
g1016
g1
(clibs.modules.libchemicallite
function_cont
p6303
g3
NtRp6304
g1
(g5
g6
(dp6305
g8
g1
(g9
g3
NtRp6306
(dp6307
g12
(tsg13
g14
sg16
g6303
sg17
g18
sbsg19
g1016
sg29
(lp6308
sg31
Nsg32
I01
sg68
(lp6309
sg127
(lp6310
g6306
asg33
(lp6311
sg70
Nsg88
(lp6312
sg90
I00
sg91
(lp6313
sg57
(lp6314
sS'func_statement'
p6315
S'mu * kappa_L4 / (k_mu + (GFP * kappa_G) + (CFP * kappa_C) + (LacI * kappa_L) + (AraC * kappa_A) + (AraC * kappa_A2) + (LacI4 * kappa_L4))'
p6316
sg71
(lp6317
stRp6318
g6318
bbsg1017
g1
(g6303
g3
NtRp6319
g1
(g5
g6
(dp6320
g8
g1
(g9
g3
NtRp6321
(dp6322
g12
(tsg13
g14
sg16
g6303
sg17
g18
sbsg19
g1017
sg29
(lp6323
sg31
Nsg32
I01
sg68
(lp6324
sg127
(lp6325
g6321
asg33
(lp6326
sg70
Nsg88
(lp6327
sg90
I00
sg91
(lp6328
sg57
(lp6329
sg6315
S'mu * kappa_A / (k_mu + (GFP * kappa_G) + (CFP * kappa_C) + (LacI * kappa_L) + (AraC * kappa_A) + (AraC * kappa_A2) + (LacI4 * kappa_L4))'
p6330
sg71
(lp6331
stRp6332
g6332
bbsg1018
g1
(g6303
g3
NtRp6333
g1
(g5
g6
(dp6334
g8
g1
(g9
g3
NtRp6335
(dp6336
g12
(tsg13
g14
sg16
g6303
sg17
g18
sbsg19
g1018
sg29
(lp6337
sg31
Nsg32
I01
sg68
(lp6338
sg127
(lp6339
g6335
asg33
(lp6340
sg70
Nsg88
(lp6341
sg90
I00
sg91
(lp6342
sg57
(lp6343
sg6315
S'mu * kappa_A2 / (k_mu + (GFP * kappa_G) + (CFP * kappa_C) + (LacI * kappa_L) + (AraC * kappa_A) + (AraC * kappa_A2) + (LacI4 * kappa_L4))'
p6344
sg71
(lp6345
stRp6346
g6346
bbsg1019
g1
(g6303
g3
NtRp6347
g1
(g5
g6
(dp6348
g8
g1
(g9
g3
NtRp6349
(dp6350
g12
(tsg13
g14
sg16
g6303
sg17
g18
sbsg19
g1019
sg29
(lp6351
sg31
Nsg32
I01
sg68
(lp6352
sg127
(lp6353
g6349
asg33
(lp6354
sg70
Nsg88
(lp6355
sg90
I00
sg91
(lp6356
sg57
(lp6357
sg6315
S'mu * kappa_L / (k_mu + (GFP * kappa_G) + (CFP * kappa_C) + (LacI * kappa_L) + (AraC * kappa_A) + (AraC * kappa_A2) + (LacI4 * kappa_L4))'
p6358
sg71
(lp6359
stRp6360
g6360
bbsg870
g1
(g6303
g3
NtRp6361
g1
(g5
g6
(dp6362
g8
g1
(g9
g3
NtRp6363
(dp6364
g12
(tsg13
g14
sg16
g6303
sg17
g18
sbsg19
g870
sg29
(lp6365
sg31
Nsg32
I01
sg68
(lp6366
sg127
(lp6367
g6363
asg33
(lp6368
sg70
Nsg88
(lp6369
sg90
I00
sg91
(lp6370
sg57
(lp6371
sg6315
Valpha_CA * ((pwm_square(AHL)**2)/((k_A**2) + (pwm_square(AHL)**2)))
p6372
sg71
(lp6373
stRp6374
g6374
bbsg1020
g1
(g6303
g3
NtRp6375
g1
(g5
g6
(dp6376
g8
g1
(g9
g3
NtRp6377
(dp6378
g12
(tsg13
g14
sg16
g6303
sg17
g18
sbsg19
g1020
sg29
(lp6379
sg31
Nsg32
I01
sg68
(lp6380
sg127
(lp6381
g6377
asg33
(lp6382
sg70
Nsg88
(lp6383
sg90
I00
sg91
(lp6384
sg57
(lp6385
sg6315
S'mu * kappa_G / (k_mu + (GFP * kappa_G) + (CFP * kappa_C) + (LacI * kappa_L) + (AraC * kappa_A) + (AraC * kappa_A2) + (LacI4 * kappa_L4))'
p6386
sg71
(lp6387
stRp6388
g6388
bbsg871
g1
(g6303
g3
NtRp6389
g1
(g5
g6
(dp6390
g8
g1
(g9
g3
NtRp6391
(dp6392
g12
(tsg13
g14
sg16
g6303
sg17
g18
sbsg19
g871
sg29
(lp6393
sg31
Nsg32
I01
sg68
(lp6394
sg127
(lp6395
g6391
asg33
(lp6396
sg70
Nsg88
(lp6397
sg90
I00
sg91
(lp6398
sg57
(lp6399
sg6315
S'alpha_GLA * ((k_L**2)/((k_L**2) + (LacI4**2))) * (AraC2/(k_A + AraC2))'
p6400
sg71
(lp6401
stRp6402
g6402
bbsg1021
g1
(g6303
g3
NtRp6403
g1
(g5
g6
(dp6404
g8
g1
(g9
g3
NtRp6405
(dp6406
g12
(tsg13
g14
sg16
g6303
sg17
g18
sbsg19
g1021
sg29
(lp6407
sg31
Nsg32
I01
sg68
(lp6408
sg127
(lp6409
g6405
asg33
(lp6410
sg70
Nsg88
(lp6411
sg90
I00
sg91
(lp6412
sg57
(lp6413
sg6315
S'mu * kappa_C / (k_mu + (GFP * kappa_G) + (CFP * kappa_C) + (LacI * kappa_L) + (AraC * kappa_A) + (AraC * kappa_A2) + (LacI4 * kappa_L4))'
p6414
sg71
(lp6415
stRp6416
g6416
bbssg989
(lp6417
g52
aS'fixed_time'
p6418
ag870
ag871
ag56
ag961
asg900
g901
sS'variables'
p6419
(dp6420
g992
g1
(clibs.modules.libchemicallite
variable
p6421
g3
NtRp6422
g1
(g5
g6
(dp6423
g8
g1
(g9
g3
NtRp6424
(dp6425
g12
(tsg13
g14
sg16
g6421
sg17
g18
sbsg19
g992
sg29
(lp6426
sg31
g4
sg32
I01
sg68
(lp6427
sg127
(lp6428
g6424
asg33
(lp6429
sg70
NsS'value'
p6430
S'0.001'
p6431
sg88
(lp6432
sg90
I00
sg91
(lp6433
sg57
(lp6434
sg71
(lp6435
stRp6436
g6436
bbsg993
g1
(g6421
g3
NtRp6437
g1
(g5
g6
(dp6438
g8
g1
(g9
g3
NtRp6439
(dp6440
g12
(tsg13
g14
sg16
g6421
sg17
g18
sbsg19
g993
sg29
(lp6441
sg31
g4
sg32
I01
sg68
(lp6442
sg127
(lp6443
g6439
asg33
(lp6444
sg70
Nsg6430
S'0.0001'
p6445
sg88
(lp6446
sg90
I00
sg91
(lp6447
sg57
(lp6448
sg71
(lp6449
stRp6450
g6450
bbsg994
g1
(g6421
g3
NtRp6451
g1
(g5
g6
(dp6452
g8
g1
(g9
g3
NtRp6453
(dp6454
g12
(tsg13
g14
sg16
g6421
sg17
g18
sbsg19
g994
sg29
(lp6455
sg31
g4
sg32
I01
sg68
(lp6456
sg127
(lp6457
g6453
asg33
(lp6458
sg70
Nsg6430
S'0.001'
p6459
sg88
(lp6460
sg90
I00
sg91
(lp6461
sg57
(lp6462
sg71
(lp6463
stRp6464
g6464
bbsg995
g1
(g6421
g3
NtRp6465
g1
(g5
g6
(dp6466
g8
g1
(g9
g3
NtRp6467
(dp6468
g12
(tsg13
g14
sg16
g6421
sg17
g18
sbsg19
g995
sg29
(lp6469
sg31
g4
sg32
I01
sg68
(lp6470
sg127
(lp6471
g6467
asg33
(lp6472
sg70
Nsg6430
S'0.001'
p6473
sg88
(lp6474
sg90
I00
sg91
(lp6475
sg57
(lp6476
sg71
(lp6477
stRp6478
g6478
bbsg996
g1
(g6421
g3
NtRp6479
g1
(g5
g6
(dp6480
g8
g1
(g9
g3
NtRp6481
(dp6482
g12
(tsg13
g14
sg16
g6421
sg17
g18
sbsg19
g996
sg29
(lp6483
sg31
g4
sg32
I01
sg68
(lp6484
sg127
(lp6485
g6481
asg33
(lp6486
sg70
Nsg6430
S'0.001'
p6487
sg88
(lp6488
sg90
I00
sg91
(lp6489
sg57
(lp6490
sg71
(lp6491
stRp6492
g6492
bbsg997
g1
(g6421
g3
NtRp6493
g1
(g5
g6
(dp6494
g8
g1
(g9
g3
NtRp6495
(dp6496
g12
(tsg13
g14
sg16
g6421
sg17
g18
sbsg19
g997
sg29
(lp6497
sg31
g4
sg32
I01
sg68
(lp6498
sg127
(lp6499
g6495
asg33
(lp6500
sg70
Nsg6430
S'0.002'
p6501
sg88
(lp6502
sg90
I00
sg91
(lp6503
sg57
(lp6504
sg71
(lp6505
stRp6506
g6506
bbsg998
g1
(g6421
g3
NtRp6507
g1
(g5
g6
(dp6508
g8
g1
(g9
g3
NtRp6509
(dp6510
g12
(tsg13
g14
sg16
g6421
sg17
g18
sbsg19
g998
sg29
(lp6511
sg31
g4
sg32
I01
sg68
(lp6512
sg127
(lp6513
g6509
asg33
(lp6514
sg70
Nsg6430
S'0.1'
p6515
sg88
(lp6516
sg90
I00
sg91
(lp6517
sg57
(lp6518
sg71
(lp6519
stRp6520
g6520
bbsg999
g1
(g6421
g3
NtRp6521
g1
(g5
g6
(dp6522
g8
g1
(g9
g3
NtRp6523
(dp6524
g12
(tsg13
g14
sg16
g6421
sg17
g18
sbsg19
g999
sg29
(lp6525
sg31
g4
sg32
I01
sg68
(lp6526
sg127
(lp6527
g6523
asg33
(lp6528
sg70
Nsg6430
S'1.0'
p6529
sg88
(lp6530
sg90
I00
sg91
(lp6531
sg57
(lp6532
sg71
(lp6533
stRp6534
g6534
bbsg1000
g1
(g6421
g3
NtRp6535
g1
(g5
g6
(dp6536
g8
g1
(g9
g3
NtRp6537
(dp6538
g12
(tsg13
g14
sg16
g6421
sg17
g18
sbsg19
g1000
sg29
(lp6539
sg31
g4
sg32
I01
sg68
(lp6540
sg127
(lp6541
g6537
asg33
(lp6542
sg70
Nsg6430
S'0.0001'
p6543
sg88
(lp6544
sg90
I00
sg91
(lp6545
sg57
(lp6546
sg71
(lp6547
stRp6548
g6548
bbsg1001
g1
(g6421
g3
NtRp6549
g1
(g5
g6
(dp6550
g8
g1
(g9
g3
NtRp6551
(dp6552
g12
(tsg13
g14
sg16
g6421
sg17
g18
sbsg19
g1001
sg29
(lp6553
sg31
g4
sg32
I01
sg68
(lp6554
sg127
(lp6555
g6551
asg33
(lp6556
sg70
Nsg6430
S'1.0'
p6557
sg88
(lp6558
sg90
I00
sg91
(lp6559
sg57
(lp6560
sg71
(lp6561
stRp6562
g6562
bbsg1002
g1
(g6421
g3
NtRp6563
g1
(g5
g6
(dp6564
g8
g1
(g9
g3
NtRp6565
(dp6566
g12
(tsg13
g14
sg16
g6421
sg17
g18
sbsg19
g1002
sg29
(lp6567
sg31
g4
sg32
I01
sg68
(lp6568
sg127
(lp6569
g6565
asg33
(lp6570
sg70
Nsg6430
S'0.0001'
p6571
sg88
(lp6572
sg90
I00
sg91
(lp6573
sg57
(lp6574
sg71
(lp6575
stRp6576
g6576
bbsg1003
g1
(g6421
g3
NtRp6577
g1
(g5
g6
(dp6578
g8
g1
(g9
g3
NtRp6579
(dp6580
g12
(tsg13
g14
sg16
g6421
sg17
g18
sbsg19
g1003
sg29
(lp6581
sg31
g4
sg32
I01
sg68
(lp6582
sg127
(lp6583
g6579
asg33
(lp6584
sg70
Nsg6430
S'0.001'
p6585
sg88
(lp6586
sg90
I00
sg91
(lp6587
sg57
(lp6588
sg71
(lp6589
stRp6590
g6590
bbsg1004
g1
(g6421
g3
NtRp6591
g1
(g5
g6
(dp6592
g8
g1
(g9
g3
NtRp6593
(dp6594
g12
(tsg13
g14
sg16
g6421
sg17
g18
sbsg19
g1004
sg29
(lp6595
sg31
g4
sg32
I01
sg68
(lp6596
sg127
(lp6597
g6593
asg33
(lp6598
sg70
Nsg6430
S'10.0'
p6599
sg88
(lp6600
sg90
I00
sg91
(lp6601
sg57
(lp6602
sg71
(lp6603
stRp6604
g6604
bbsg1005
g1
(g6421
g3
NtRp6605
g1
(g5
g6
(dp6606
g8
g1
(g9
g3
NtRp6607
(dp6608
g12
(tsg13
g14
sg16
g6421
sg17
g18
sbsg19
g1005
sg29
(lp6609
sg31
g4
sg32
I01
sg68
(lp6610
sg127
(lp6611
g6607
asg33
(lp6612
sg70
Nsg6430
S'0.0001'
p6613
sg88
(lp6614
sg90
I00
sg91
(lp6615
sg57
(lp6616
sg71
(lp6617
stRp6618
g6618
bbsg1006
g1
(g6421
g3
NtRp6619
g1
(g5
g6
(dp6620
g8
g1
(g9
g3
NtRp6621
(dp6622
g12
(tsg13
g14
sg16
g6421
sg17
g18
sbsg19
g1006
sg29
(lp6623
sg31
g4
sg32
I01
sg68
(lp6624
sg127
(lp6625
g6621
asg33
(lp6626
sg70
Nsg6430
S'1.0'
p6627
sg88
(lp6628
sg90
I00
sg91
(lp6629
sg57
(lp6630
sg71
(lp6631
stRp6632
g6632
bbsg1007
g1
(g6421
g3
NtRp6633
g1
(g5
g6
(dp6634
g8
g1
(g9
g3
NtRp6635
(dp6636
g12
(tsg13
g14
sg16
g6421
sg17
g18
sbsg19
g1007
sg29
(lp6637
sg31
g4
sg32
I01
sg68
(lp6638
sg127
(lp6639
g6635
asg33
(lp6640
sg70
Nsg6430
S'1.0'
p6641
sg88
(lp6642
sg90
I00
sg91
(lp6643
sg57
(lp6644
sg71
(lp6645
stRp6646
g6646
bbsg1008
g1
(g6421
g3
NtRp6647
g1
(g5
g6
(dp6648
g8
g1
(g9
g3
NtRp6649
(dp6650
g12
(tsg13
g14
sg16
g6421
sg17
g18
sbsg19
g1008
sg29
(lp6651
sg31
g4
sg32
I01
sg68
(lp6652
sg127
(lp6653
g6649
asg33
(lp6654
sg70
Nsg6430
S'0.001'
p6655
sg88
(lp6656
sg90
I00
sg91
(lp6657
sg57
(lp6658
sg71
(lp6659
stRp6660
g6660
bbsg1009
g1
(g6421
g3
NtRp6661
g1
(g5
g6
(dp6662
g8
g1
(g9
g3
NtRp6663
(dp6664
g12
(tsg13
g14
sg16
g6421
sg17
g18
sbsg19
g1009
sg29
(lp6665
sg31
g4
sg32
I01
sg68
(lp6666
sg127
(lp6667
g6663
asg33
(lp6668
sg70
Nsg6430
S'10'
p6669
sg88
(lp6670
sg90
I00
sg91
(lp6671
sg57
(lp6672
sg71
(lp6673
stRp6674
g6674
bbsg1010
g1
(g6421
g3
NtRp6675
g1
(g5
g6
(dp6676
g8
g1
(g9
g3
NtRp6677
(dp6678
g12
(tsg13
g14
sg16
g6421
sg17
g18
sbsg19
g1010
sg29
(lp6679
sg31
g4
sg32
I01
sg68
(lp6680
sg127
(lp6681
g6677
asg33
(lp6682
sg70
Nsg6430
S'1.0'
p6683
sg88
(lp6684
sg90
I00
sg91
(lp6685
sg57
(lp6686
sg71
(lp6687
stRp6688
g6688
bbsg1011
g1
(g6421
g3
NtRp6689
g1
(g5
g6
(dp6690
g8
g1
(g9
g3
NtRp6691
(dp6692
g12
(tsg13
g14
sg16
g6421
sg17
g18
sbsg19
g1011
sg29
(lp6693
sg31
g4
sg32
I01
sg68
(lp6694
sg127
(lp6695
g6691
asg33
(lp6696
sg70
Nsg6430
S'10.0'
p6697
sg88
(lp6698
sg90
I00
sg91
(lp6699
sg57
(lp6700
sg71
(lp6701
stRp6702
g6702
bbsg1012
g1
(g6421
g3
NtRp6703
g1
(g5
g6
(dp6704
g8
g1
(g9
g3
NtRp6705
(dp6706
g12
(tsg13
g14
sg16
g6421
sg17
g18
sbsg19
g1012
sg29
(lp6707
sg31
g4
sg32
I01
sg68
(lp6708
sg127
(lp6709
g6705
asg33
(lp6710
sg70
Nsg6430
S'1.0'
p6711
sg88
(lp6712
sg90
I00
sg91
(lp6713
sg57
(lp6714
sg71
(lp6715
stRp6716
g6716
bbsg1013
g1
(g6421
g3
NtRp6717
g1
(g5
g6
(dp6718
g8
g1
(g9
g3
NtRp6719
(dp6720
g12
(tsg13
g14
sg16
g6421
sg17
g18
sbsg19
g1013
sg29
(lp6721
sg31
g4
sg32
I01
sg68
(lp6722
sg127
(lp6723
g6719
asg33
(lp6724
sg70
Nsg6430
S'1.0'
p6725
sg88
(lp6726
sg90
I00
sg91
(lp6727
sg57
(lp6728
sg71
(lp6729
stRp6730
g6730
bbsg1014
g1
(g6421
g3
NtRp6731
g1
(g5
g6
(dp6732
g8
g1
(g9
g3
NtRp6733
(dp6734
g12
(tsg13
g14
sg16
g6421
sg17
g18
sbsg19
g1014
sg29
(lp6735
sg31
g4
sg32
I01
sg68
(lp6736
sg127
(lp6737
g6733
asg33
(lp6738
sg70
Nsg6430
S'1.0'
p6739
sg88
(lp6740
sg90
I00
sg91
(lp6741
sg57
(lp6742
sg71
(lp6743
stRp6744
g6744
bbsg1015
g1
(g6421
g3
NtRp6745
g1
(g5
g6
(dp6746
g8
g1
(g9
g3
NtRp6747
(dp6748
g12
(tsg13
g14
sg16
g6421
sg17
g18
sbsg19
g1015
sg29
(lp6749
sg31
g4
sg32
I01
sg68
(lp6750
sg127
(lp6751
g6747
asg33
(lp6752
sg70
Nsg6430
S'1.0'
p6753
sg88
(lp6754
sg90
I00
sg91
(lp6755
sg57
(lp6756
sg71
(lp6757
stRp6758
g6758
bbssg337
(dp6759
g1062
g1
(g5
g6
(dp6760
g1033
g1034
sg6301
g6302
sg989
g6417
sg900
g901
sg6419
g6420
sg944
g945
sg341
NsS'bool_expressions'
p6761
g1
(g5
g6
(dp6762
g341
NsS'capt'
p6763
S''
sS'end'
p6764
S''
stRp6765
(dp6766
g70
NsS'capt'
p6767
S''
sS'end'
p6768
S''
sbsS'species'
p6769
(dp6770
S'AraC2'
p6771
g1
(clibs.modules.libchemicallite
species
p6772
g3
NtRp6773
g1
(g5
g6
(dp6774
g8
g1
(g9
g3
NtRp6775
(dp6776
g12
(tsg13
g14
sg16
g6772
sg17
g18
sbsg19
g6771
sS'current_count'
p6777
I20
sg29
(lp6778
sg31
g4
sg32
I01
sg33
(lp6779
sg88
(lp6780
sg90
I00
sg64
(lp6781
g66
aS'initial_count'
p6782
asg57
(lp6783
sg71
(lp6784
sg6782
I20
sg91
(lp6785
sg1062
Nsg68
(lp6786
sg70
Nsg127
(lp6787
g6775
astRp6788
g6788
bbsS'LacI'
p6789
g1
(g6772
g3
NtRp6790
g1
(g5
g6
(dp6791
g8
g1
(g9
g3
NtRp6792
(dp6793
g12
(tsg13
g14
sg16
g6772
sg17
g18
sbsg19
g6789
sg6777
I1
sg29
(lp6794
sg31
g4
sg32
I01
sg33
(lp6795
sg88
(lp6796
sg90
I00
sg64
g6781
sg57
(lp6797
sg71
(lp6798
sg6782
I1
sg91
(lp6799
sg1062
Nsg68
(lp6800
sg70
Nsg127
(lp6801
g6792
astRp6802
g6802
bbsg54
g1
(g6772
g3
NtRp6803
g1
(g5
g6
(dp6804
g8
g1
(g9
g3
NtRp6805
(dp6806
g12
(tsg13
g14
sg16
g6772
sg17
g18
sbsg19
g54
sg6777
I10
sg29
(lp6807
sg31
g4
sg32
I01
sg33
(lp6808
sg88
(lp6809
sg90
I00
sg64
g6781
sg57
(lp6810
sg71
(lp6811
sg6782
I10
sg91
(lp6812
sg1062
Nsg68
(lp6813
sg70
Nsg127
(lp6814
g6805
astRp6815
g6815
bbsS'AraC'
p6816
g1
(g6772
g3
NtRp6817
g1
(g5
g6
(dp6818
g8
g1
(g9
g3
NtRp6819
(dp6820
g12
(tsg13
g14
sg16
g6772
sg17
g18
sbsg19
g6816
sg6777
I50
sg29
(lp6821
sg31
g4
sg32
I01
sg33
(lp6822
sg88
(lp6823
sg90
I00
sg64
g6781
sg57
(lp6824
sg71
(lp6825
sg6782
I50
sg91
(lp6826
sg1062
Nsg68
(lp6827
sg70
Nsg127
(lp6828
g6819
astRp6829
g6829
bbsS'LacI4'
p6830
g1
(g6772
g3
NtRp6831
g1
(g5
g6
(dp6832
g8
g1
(g9
g3
NtRp6833
(dp6834
g12
(tsg13
g14
sg16
g6772
sg17
g18
sbsg19
g6830
sg6777
I1
sg29
(lp6835
sg31
g4
sg32
I01
sg33
(lp6836
sg88
(lp6837
sg90
I00
sg64
g6781
sg57
(lp6838
sg71
(lp6839
sg6782
I1
sg91
(lp6840
sg1062
Nsg68
(lp6841
sg70
Nsg127
(lp6842
g6833
astRp6843
g6843
bbsg56
g1
(g6772
g3
NtRp6844
g1
(g5
g6
(dp6845
g8
g1
(g9
g3
NtRp6846
(dp6847
g12
(tsg13
g14
sg16
g6772
sg17
g18
sbsg19
g56
sg6777
I10
sg29
(lp6848
sg31
g4
sg32
I01
sg33
(lp6849
sg88
(lp6850
sg90
I00
sg64
g6781
sg57
(lp6851
sg71
(lp6852
sg6782
I10
sg91
(lp6853
sg1062
Nsg68
(lp6854
sg70
Nsg127
(lp6855
g6846
astRp6856
g6856
bbsstRp6857
(dp6858
S'reactions'
p6859
g1034
sS'functions'
p6860
g6302
sS'plot_targets'
p6861
g6417
sS'end_criteria'
p6862
g901
sS'variables'
p6863
g6420
sS'capture_criteria'
p6864
g945
sg70
NsS'bool_expressions'
p6865
g6765
sS'species'
p6866
g6770
sbsS'template owners'
p6867
g1
(g5
g6
(dp6868
g1033
g1034
sg6419
g6420
sg6301
g6302
sg6769
g6770
stRp6869
(dp6870
g70
Nsg6859
g1034
sg6863
g6420
sg6860
g6302
sg6866
g6770
sbssg944
g945
sS'multiprocessing'
p6871
Nsg341
g4
sS'output_plans'
p6872
(dp6873
g742
g738
sg412
g408
sg144
g140
sg577
g573
ssg6761
g6765
sg35
g36
sS'p_space_map'
p6874
Nsg6769
(dp6875
g959
g6773
sg960
g6790
sg961
g6803
sg962
g6817
sg963
g6831
sg964
g6844
ssS'fit_routines'
p6876
(lp6877
stRp6878
(dp6879
g6859
g1034
sg6860
g6302
sg6861
g6417
sg6862
g901
sg6863
g6420
sS'partition'
p6880
g6759
sg6864
g945
sg6866
g6875
sg70
g4
sS'output_plans'
p6881
g6873
sg6865
g6765
sS'post_processes'
p6882
g36
sS'p_space_map'
p6883
NsS'multiprocessing'
p6884
NsS'fit_routines'
p6885
g6877
sbsg849
S'y-title'
p6886
sS'data_pool_descr'
p6887
S'Data Pool Holds 1 Simulation Trajectories and 0 Post Process Pools'
p6888
sS'cartographer_plan'
p6889
g1
(clibs.modular_core.libgeometry
cartographer_plan
p6890
g3
NtRp6891
g1
(g5
g6
(dp6892
g8
g1
(g9
g3
NtRp6893
(dp6894
g12
(tsg13
g14
sg16
g6890
sg17
g18
sbsg19
S'Parameter Scan'
p6895
sg29
(lp6896
sg31
g4
sg32
I01
sg33
(lp6897
sg88
(lp6898
sS'parameter_space_mobjs'
p6899
g6857
sg91
(lp6900
sg57
(lp6901
sg71
(lp6902
sg112
I00
sS'controller_ref'
p6903
NsS'trajectory'
p6904
(lp6905
sS'iteration'
p6906
I0
sS'parameter_space'
p6907
Nsg68
(lp6908
sg70
NsS'traj_count'
p6909
I1
sS'key_path'
p6910
S''
sg127
(lp6911
g6893
astRp6912
g6912
bbsS'use_color_plot'
p6913
I00
sg29
(lp6914
sS'treebook_memory'
p6915
(lp6916
I13
a(lp6917
I0
aI4
aI7
aI1
aI2
aI3
aI5
aI6
aI8
aI9
aI10
aI11
aasg31
Nsg32
I01
sS'data_pool_pkl'
p6918
S'C:\\Users\\bartl_000\\Desktop\\Work\\Modular\\data_pools\\data_pool.1393641080.18.pkl'
p6919
sS'use_line_plot'
p6920
I01
sS'cancel_make'
p6921
I00
sS'mcfg_dir'
p6922
S'C:\\Users\\bartl_000\\Desktop\\Work\\Modular\\chemicallite'
p6923
sg88
(lp6924
sS'data_pool'
p6925
(lp6926
sg856
S'x-title'
p6927
sg91
(lp6928
sS'fitting_plan'
p6929
g1
(clibs.modular_core.libfitroutine
fit_routine_plan
p6930
g3
NtRp6931
g1
(g5
g6
(dp6932
g8
g1
(g9
g3
NtRp6933
(dp6934
g12
(tsg13
g14
sg16
g6930
sg17
g18
sbsg19
S'fit routine plan'
p6935
sg29
(lp6936
sg31
g4
sg32
I01
sg33
(lp6937
sg68
(lp6938
sg88
(lp6939
sg91
(lp6940
sg57
(lp6941
sg71
(lp6942
sg112
I00
sS'routines'
p6943
g6877
sS'selected_routine'
p6944
Nsg70
Nsg127
(lp6945
g6933
astRp6946
g6946
bbsg337
(dp6947
S'template owners'
p6948
g1
(g5
g6
(dp6949
g737
g738
sg1031
g6878
sg6889
g6891
sg731
g97
sg22
g24
sg6929
g6931
sg888
g890
stRp6950
(dp6951
S'output_plan'
p6952
g738
sS'postprocess_plan'
p6953
g24
sS'simulation_plan'
p6954
g890
sg70
NsS'run_params'
p6955
g6878
sS'multiprocess_plan'
p6956
g97
sS'cartographer_plan'
p6957
g6891
sS'fitting_plan'
p6958
g6931
sbssS'_make_rxn_'
p6959
NsS'mcfg_text_box_ref'
p6960
Nsg127
(lp6961
g10
asg190
(lp6962
g890
ag738
ag6931
ag6891
ag24
ag97
ag1036
ag1365
ag1640
ag1915
ag2190
ag2465
ag2739
ag3013
ag3287
ag3561
ag3835
ag4109
ag4383
ag4657
ag4931
ag5205
ag5479
ag5753
ag6027
astRp6963
g6963
bb.